ARM GAS  /tmp/cch5jEqQ.s 			page 1


   1              		.cpu cortex-m7
   2              		.arch armv7e-m
   3              		.fpu fpv5-sp-d16
   4              		.eabi_attribute 27, 1
   5              		.eabi_attribute 28, 1
   6              		.eabi_attribute 20, 1
   7              		.eabi_attribute 21, 1
   8              		.eabi_attribute 23, 3
   9              		.eabi_attribute 24, 1
  10              		.eabi_attribute 25, 1
  11              		.eabi_attribute 26, 1
  12              		.eabi_attribute 30, 1
  13              		.eabi_attribute 34, 1
  14              		.eabi_attribute 18, 4
  15              		.file	"ip4_addr.c"
  16              		.text
  17              	.Ltext0:
  18              		.cfi_sections	.debug_frame
  19              		.section	.text.ip4_addr_isbroadcast_u32,"ax",%progbits
  20              		.align	1
  21              		.global	ip4_addr_isbroadcast_u32
  22              		.syntax unified
  23              		.thumb
  24              		.thumb_func
  26              	ip4_addr_isbroadcast_u32:
  27              	.LVL0:
  28              	.LFB167:
  29              		.file 1 "Middlewares/Third_Party/LwIP/src/core/ipv4/ip4_addr.c"
   1:Middlewares/Third_Party/LwIP/src/core/ipv4/ip4_addr.c **** /**
   2:Middlewares/Third_Party/LwIP/src/core/ipv4/ip4_addr.c ****  * @file
   3:Middlewares/Third_Party/LwIP/src/core/ipv4/ip4_addr.c ****  * This is the IPv4 address tools implementation.
   4:Middlewares/Third_Party/LwIP/src/core/ipv4/ip4_addr.c ****  *
   5:Middlewares/Third_Party/LwIP/src/core/ipv4/ip4_addr.c ****  */
   6:Middlewares/Third_Party/LwIP/src/core/ipv4/ip4_addr.c **** 
   7:Middlewares/Third_Party/LwIP/src/core/ipv4/ip4_addr.c **** /*
   8:Middlewares/Third_Party/LwIP/src/core/ipv4/ip4_addr.c ****  * Copyright (c) 2001-2004 Swedish Institute of Computer Science.
   9:Middlewares/Third_Party/LwIP/src/core/ipv4/ip4_addr.c ****  * All rights reserved.
  10:Middlewares/Third_Party/LwIP/src/core/ipv4/ip4_addr.c ****  *
  11:Middlewares/Third_Party/LwIP/src/core/ipv4/ip4_addr.c ****  * Redistribution and use in source and binary forms, with or without modification,
  12:Middlewares/Third_Party/LwIP/src/core/ipv4/ip4_addr.c ****  * are permitted provided that the following conditions are met:
  13:Middlewares/Third_Party/LwIP/src/core/ipv4/ip4_addr.c ****  *
  14:Middlewares/Third_Party/LwIP/src/core/ipv4/ip4_addr.c ****  * 1. Redistributions of source code must retain the above copyright notice,
  15:Middlewares/Third_Party/LwIP/src/core/ipv4/ip4_addr.c ****  *    this list of conditions and the following disclaimer.
  16:Middlewares/Third_Party/LwIP/src/core/ipv4/ip4_addr.c ****  * 2. Redistributions in binary form must reproduce the above copyright notice,
  17:Middlewares/Third_Party/LwIP/src/core/ipv4/ip4_addr.c ****  *    this list of conditions and the following disclaimer in the documentation
  18:Middlewares/Third_Party/LwIP/src/core/ipv4/ip4_addr.c ****  *    and/or other materials provided with the distribution.
  19:Middlewares/Third_Party/LwIP/src/core/ipv4/ip4_addr.c ****  * 3. The name of the author may not be used to endorse or promote products
  20:Middlewares/Third_Party/LwIP/src/core/ipv4/ip4_addr.c ****  *    derived from this software without specific prior written permission.
  21:Middlewares/Third_Party/LwIP/src/core/ipv4/ip4_addr.c ****  *
  22:Middlewares/Third_Party/LwIP/src/core/ipv4/ip4_addr.c ****  * THIS SOFTWARE IS PROVIDED BY THE AUTHOR ``AS IS'' AND ANY EXPRESS OR IMPLIED
  23:Middlewares/Third_Party/LwIP/src/core/ipv4/ip4_addr.c ****  * WARRANTIES, INCLUDING, BUT NOT LIMITED TO, THE IMPLIED WARRANTIES OF
  24:Middlewares/Third_Party/LwIP/src/core/ipv4/ip4_addr.c ****  * MERCHANTABILITY AND FITNESS FOR A PARTICULAR PURPOSE ARE DISCLAIMED. IN NO EVENT
  25:Middlewares/Third_Party/LwIP/src/core/ipv4/ip4_addr.c ****  * SHALL THE AUTHOR BE LIABLE FOR ANY DIRECT, INDIRECT, INCIDENTAL, SPECIAL,
  26:Middlewares/Third_Party/LwIP/src/core/ipv4/ip4_addr.c ****  * EXEMPLARY, OR CONSEQUENTIAL DAMAGES (INCLUDING, BUT NOT LIMITED TO, PROCUREMENT
  27:Middlewares/Third_Party/LwIP/src/core/ipv4/ip4_addr.c ****  * OF SUBSTITUTE GOODS OR SERVICES; LOSS OF USE, DATA, OR PROFITS; OR BUSINESS
  28:Middlewares/Third_Party/LwIP/src/core/ipv4/ip4_addr.c ****  * INTERRUPTION) HOWEVER CAUSED AND ON ANY THEORY OF LIABILITY, WHETHER IN
  29:Middlewares/Third_Party/LwIP/src/core/ipv4/ip4_addr.c ****  * CONTRACT, STRICT LIABILITY, OR TORT (INCLUDING NEGLIGENCE OR OTHERWISE) ARISING
ARM GAS  /tmp/cch5jEqQ.s 			page 2


  30:Middlewares/Third_Party/LwIP/src/core/ipv4/ip4_addr.c ****  * IN ANY WAY OUT OF THE USE OF THIS SOFTWARE, EVEN IF ADVISED OF THE POSSIBILITY
  31:Middlewares/Third_Party/LwIP/src/core/ipv4/ip4_addr.c ****  * OF SUCH DAMAGE.
  32:Middlewares/Third_Party/LwIP/src/core/ipv4/ip4_addr.c ****  *
  33:Middlewares/Third_Party/LwIP/src/core/ipv4/ip4_addr.c ****  * This file is part of the lwIP TCP/IP stack.
  34:Middlewares/Third_Party/LwIP/src/core/ipv4/ip4_addr.c ****  *
  35:Middlewares/Third_Party/LwIP/src/core/ipv4/ip4_addr.c ****  * Author: Adam Dunkels <adam@sics.se>
  36:Middlewares/Third_Party/LwIP/src/core/ipv4/ip4_addr.c ****  *
  37:Middlewares/Third_Party/LwIP/src/core/ipv4/ip4_addr.c ****  */
  38:Middlewares/Third_Party/LwIP/src/core/ipv4/ip4_addr.c **** 
  39:Middlewares/Third_Party/LwIP/src/core/ipv4/ip4_addr.c **** #include "lwip/opt.h"
  40:Middlewares/Third_Party/LwIP/src/core/ipv4/ip4_addr.c **** 
  41:Middlewares/Third_Party/LwIP/src/core/ipv4/ip4_addr.c **** #if LWIP_IPV4
  42:Middlewares/Third_Party/LwIP/src/core/ipv4/ip4_addr.c **** 
  43:Middlewares/Third_Party/LwIP/src/core/ipv4/ip4_addr.c **** #include "lwip/ip_addr.h"
  44:Middlewares/Third_Party/LwIP/src/core/ipv4/ip4_addr.c **** #include "lwip/netif.h"
  45:Middlewares/Third_Party/LwIP/src/core/ipv4/ip4_addr.c **** 
  46:Middlewares/Third_Party/LwIP/src/core/ipv4/ip4_addr.c **** /* used by IP4_ADDR_ANY and IP_ADDR_BROADCAST in ip_addr.h */
  47:Middlewares/Third_Party/LwIP/src/core/ipv4/ip4_addr.c **** const ip_addr_t ip_addr_any = IPADDR4_INIT(IPADDR_ANY);
  48:Middlewares/Third_Party/LwIP/src/core/ipv4/ip4_addr.c **** const ip_addr_t ip_addr_broadcast = IPADDR4_INIT(IPADDR_BROADCAST);
  49:Middlewares/Third_Party/LwIP/src/core/ipv4/ip4_addr.c **** 
  50:Middlewares/Third_Party/LwIP/src/core/ipv4/ip4_addr.c **** /**
  51:Middlewares/Third_Party/LwIP/src/core/ipv4/ip4_addr.c ****  * Determine if an address is a broadcast address on a network interface
  52:Middlewares/Third_Party/LwIP/src/core/ipv4/ip4_addr.c ****  *
  53:Middlewares/Third_Party/LwIP/src/core/ipv4/ip4_addr.c ****  * @param addr address to be checked
  54:Middlewares/Third_Party/LwIP/src/core/ipv4/ip4_addr.c ****  * @param netif the network interface against which the address is checked
  55:Middlewares/Third_Party/LwIP/src/core/ipv4/ip4_addr.c ****  * @return returns non-zero if the address is a broadcast address
  56:Middlewares/Third_Party/LwIP/src/core/ipv4/ip4_addr.c ****  */
  57:Middlewares/Third_Party/LwIP/src/core/ipv4/ip4_addr.c **** u8_t
  58:Middlewares/Third_Party/LwIP/src/core/ipv4/ip4_addr.c **** ip4_addr_isbroadcast_u32(u32_t addr, const struct netif *netif)
  59:Middlewares/Third_Party/LwIP/src/core/ipv4/ip4_addr.c **** {
  30              		.loc 1 59 1 view -0
  31              		.cfi_startproc
  32              		@ args = 0, pretend = 0, frame = 0
  33              		@ frame_needed = 0, uses_anonymous_args = 0
  34              		@ link register save eliminated.
  35              		.loc 1 59 1 is_stmt 0 view .LVU1
  36 0000 0346     		mov	r3, r0
  60:Middlewares/Third_Party/LwIP/src/core/ipv4/ip4_addr.c ****   ip4_addr_t ipaddr;
  37              		.loc 1 60 3 is_stmt 1 view .LVU2
  61:Middlewares/Third_Party/LwIP/src/core/ipv4/ip4_addr.c ****   ip4_addr_set_u32(&ipaddr, addr);
  38              		.loc 1 61 3 view .LVU3
  62:Middlewares/Third_Party/LwIP/src/core/ipv4/ip4_addr.c **** 
  63:Middlewares/Third_Party/LwIP/src/core/ipv4/ip4_addr.c ****   /* all ones (broadcast) or all zeroes (old skool broadcast) */
  64:Middlewares/Third_Party/LwIP/src/core/ipv4/ip4_addr.c ****   if ((~addr == IPADDR_ANY) ||
  39              		.loc 1 64 3 view .LVU4
  40              		.loc 1 64 29 is_stmt 0 view .LVU5
  41 0002 421E     		subs	r2, r0, #1
  42              		.loc 1 64 6 view .LVU6
  43 0004 12F1030F 		cmn	r2, #3
  44 0008 12D8     		bhi	.L3
  65:Middlewares/Third_Party/LwIP/src/core/ipv4/ip4_addr.c ****       (addr == IPADDR_ANY)) {
  66:Middlewares/Third_Party/LwIP/src/core/ipv4/ip4_addr.c ****     return 1;
  67:Middlewares/Third_Party/LwIP/src/core/ipv4/ip4_addr.c ****     /* no broadcast support on this network interface? */
  68:Middlewares/Third_Party/LwIP/src/core/ipv4/ip4_addr.c ****   } else if ((netif->flags & NETIF_FLAG_BROADCAST) == 0) {
  45              		.loc 1 68 10 is_stmt 1 view .LVU7
  46              		.loc 1 68 20 is_stmt 0 view .LVU8
  47 000a 91F82D00 		ldrb	r0, [r1, #45]	@ zero_extendqisi2
ARM GAS  /tmp/cch5jEqQ.s 			page 3


  48              	.LVL1:
  49              		.loc 1 68 13 view .LVU9
  50 000e 10F00200 		ands	r0, r0, #2
  51 0012 14D0     		beq	.L2
  69:Middlewares/Third_Party/LwIP/src/core/ipv4/ip4_addr.c ****     /* the given address cannot be a broadcast address
  70:Middlewares/Third_Party/LwIP/src/core/ipv4/ip4_addr.c ****      * nor can we check against any broadcast addresses */
  71:Middlewares/Third_Party/LwIP/src/core/ipv4/ip4_addr.c ****     return 0;
  72:Middlewares/Third_Party/LwIP/src/core/ipv4/ip4_addr.c ****     /* address matches network interface address exactly? => no broadcast */
  73:Middlewares/Third_Party/LwIP/src/core/ipv4/ip4_addr.c ****   } else if (addr == ip4_addr_get_u32(netif_ip4_addr(netif))) {
  52              		.loc 1 73 10 is_stmt 1 view .LVU10
  53              		.loc 1 73 22 is_stmt 0 view .LVU11
  54 0014 4A68     		ldr	r2, [r1, #4]
  55              		.loc 1 73 13 view .LVU12
  56 0016 9A42     		cmp	r2, r3
  57 0018 0CD0     		beq	.L4
  74:Middlewares/Third_Party/LwIP/src/core/ipv4/ip4_addr.c ****     return 0;
  75:Middlewares/Third_Party/LwIP/src/core/ipv4/ip4_addr.c ****     /*  on the same (sub) network... */
  76:Middlewares/Third_Party/LwIP/src/core/ipv4/ip4_addr.c ****   } else if (ip4_addr_netcmp(&ipaddr, netif_ip4_addr(netif), netif_ip4_netmask(netif))
  58              		.loc 1 76 10 is_stmt 1 view .LVU13
  59              		.loc 1 76 14 is_stmt 0 view .LVU14
  60 001a 8868     		ldr	r0, [r1, #8]
  61 001c 5A40     		eors	r2, r2, r3
  62              		.loc 1 76 13 view .LVU15
  63 001e 0242     		tst	r2, r0
  64 0020 0AD1     		bne	.L5
  77:Middlewares/Third_Party/LwIP/src/core/ipv4/ip4_addr.c ****              /* ...and host identifier bits are all ones? =>... */
  78:Middlewares/Third_Party/LwIP/src/core/ipv4/ip4_addr.c ****              && ((addr & ~ip4_addr_get_u32(netif_ip4_netmask(netif))) ==
  65              		.loc 1 78 26 view .LVU16
  66 0022 C243     		mvns	r2, r0
  67              		.loc 1 78 24 view .LVU17
  68 0024 23EA0003 		bic	r3, r3, r0
  69              	.LVL2:
  70              		.loc 1 78 14 view .LVU18
  71 0028 9A42     		cmp	r2, r3
  72 002a 07D0     		beq	.L6
  79:Middlewares/Third_Party/LwIP/src/core/ipv4/ip4_addr.c ****                  (IPADDR_BROADCAST & ~ip4_addr_get_u32(netif_ip4_netmask(netif))))) {
  80:Middlewares/Third_Party/LwIP/src/core/ipv4/ip4_addr.c ****     /* => network broadcast address */
  81:Middlewares/Third_Party/LwIP/src/core/ipv4/ip4_addr.c ****     return 1;
  82:Middlewares/Third_Party/LwIP/src/core/ipv4/ip4_addr.c ****   } else {
  83:Middlewares/Third_Party/LwIP/src/core/ipv4/ip4_addr.c ****     return 0;
  73              		.loc 1 83 12 view .LVU19
  74 002c 0020     		movs	r0, #0
  75 002e 7047     		bx	lr
  76              	.LVL3:
  77              	.L3:
  66:Middlewares/Third_Party/LwIP/src/core/ipv4/ip4_addr.c ****     /* no broadcast support on this network interface? */
  78              		.loc 1 66 12 view .LVU20
  79 0030 0120     		movs	r0, #1
  80              	.LVL4:
  66:Middlewares/Third_Party/LwIP/src/core/ipv4/ip4_addr.c ****     /* no broadcast support on this network interface? */
  81              		.loc 1 66 12 view .LVU21
  82 0032 7047     		bx	lr
  83              	.L4:
  74:Middlewares/Third_Party/LwIP/src/core/ipv4/ip4_addr.c ****     /*  on the same (sub) network... */
  84              		.loc 1 74 12 view .LVU22
  85 0034 0020     		movs	r0, #0
  86 0036 7047     		bx	lr
ARM GAS  /tmp/cch5jEqQ.s 			page 4


  87              	.L5:
  88              		.loc 1 83 12 view .LVU23
  89 0038 0020     		movs	r0, #0
  90 003a 7047     		bx	lr
  91              	.LVL5:
  92              	.L6:
  81:Middlewares/Third_Party/LwIP/src/core/ipv4/ip4_addr.c ****   } else {
  93              		.loc 1 81 12 view .LVU24
  94 003c 0120     		movs	r0, #1
  95              	.L2:
  84:Middlewares/Third_Party/LwIP/src/core/ipv4/ip4_addr.c ****   }
  85:Middlewares/Third_Party/LwIP/src/core/ipv4/ip4_addr.c **** }
  96              		.loc 1 85 1 view .LVU25
  97 003e 7047     		bx	lr
  98              		.cfi_endproc
  99              	.LFE167:
 101              		.section	.text.ip4_addr_netmask_valid,"ax",%progbits
 102              		.align	1
 103              		.global	ip4_addr_netmask_valid
 104              		.syntax unified
 105              		.thumb
 106              		.thumb_func
 108              	ip4_addr_netmask_valid:
 109              	.LVL6:
 110              	.LFB168:
  86:Middlewares/Third_Party/LwIP/src/core/ipv4/ip4_addr.c **** 
  87:Middlewares/Third_Party/LwIP/src/core/ipv4/ip4_addr.c **** /** Checks if a netmask is valid (starting with ones, then only zeros)
  88:Middlewares/Third_Party/LwIP/src/core/ipv4/ip4_addr.c ****  *
  89:Middlewares/Third_Party/LwIP/src/core/ipv4/ip4_addr.c ****  * @param netmask the IPv4 netmask to check (in network byte order!)
  90:Middlewares/Third_Party/LwIP/src/core/ipv4/ip4_addr.c ****  * @return 1 if the netmask is valid, 0 if it is not
  91:Middlewares/Third_Party/LwIP/src/core/ipv4/ip4_addr.c ****  */
  92:Middlewares/Third_Party/LwIP/src/core/ipv4/ip4_addr.c **** u8_t
  93:Middlewares/Third_Party/LwIP/src/core/ipv4/ip4_addr.c **** ip4_addr_netmask_valid(u32_t netmask)
  94:Middlewares/Third_Party/LwIP/src/core/ipv4/ip4_addr.c **** {
 111              		.loc 1 94 1 is_stmt 1 view -0
 112              		.cfi_startproc
 113              		@ args = 0, pretend = 0, frame = 0
 114              		@ frame_needed = 0, uses_anonymous_args = 0
 115              		.loc 1 94 1 is_stmt 0 view .LVU27
 116 0000 08B5     		push	{r3, lr}
 117              	.LCFI0:
 118              		.cfi_def_cfa_offset 8
 119              		.cfi_offset 3, -8
 120              		.cfi_offset 14, -4
  95:Middlewares/Third_Party/LwIP/src/core/ipv4/ip4_addr.c ****   u32_t mask;
 121              		.loc 1 95 3 is_stmt 1 view .LVU28
  96:Middlewares/Third_Party/LwIP/src/core/ipv4/ip4_addr.c ****   u32_t nm_hostorder = lwip_htonl(netmask);
 122              		.loc 1 96 3 view .LVU29
 123              		.loc 1 96 24 is_stmt 0 view .LVU30
 124 0002 FFF7FEFF 		bl	lwip_htonl
 125              	.LVL7:
  97:Middlewares/Third_Party/LwIP/src/core/ipv4/ip4_addr.c **** 
  98:Middlewares/Third_Party/LwIP/src/core/ipv4/ip4_addr.c ****   /* first, check for the first zero */
  99:Middlewares/Third_Party/LwIP/src/core/ipv4/ip4_addr.c ****   for (mask = 1UL << 31 ; mask != 0; mask >>= 1) {
 126              		.loc 1 99 3 is_stmt 1 view .LVU31
 127              		.loc 1 99 13 is_stmt 0 view .LVU32
 128 0006 4FF00043 		mov	r3, #-2147483648
ARM GAS  /tmp/cch5jEqQ.s 			page 5


 129              	.LVL8:
 130              	.L8:
 131              		.loc 1 99 27 is_stmt 1 discriminator 1 view .LVU33
 132              		.loc 1 99 3 is_stmt 0 discriminator 1 view .LVU34
 133 000a 1BB1     		cbz	r3, .L12
 100:Middlewares/Third_Party/LwIP/src/core/ipv4/ip4_addr.c ****     if ((nm_hostorder & mask) == 0) {
 134              		.loc 1 100 5 is_stmt 1 view .LVU35
 135              		.loc 1 100 8 is_stmt 0 view .LVU36
 136 000c 0342     		tst	r3, r0
 137 000e 01D0     		beq	.L12
  99:Middlewares/Third_Party/LwIP/src/core/ipv4/ip4_addr.c ****     if ((nm_hostorder & mask) == 0) {
 138              		.loc 1 99 38 is_stmt 1 discriminator 2 view .LVU37
  99:Middlewares/Third_Party/LwIP/src/core/ipv4/ip4_addr.c ****     if ((nm_hostorder & mask) == 0) {
 139              		.loc 1 99 43 is_stmt 0 discriminator 2 view .LVU38
 140 0010 5B08     		lsrs	r3, r3, #1
 141              	.LVL9:
  99:Middlewares/Third_Party/LwIP/src/core/ipv4/ip4_addr.c ****     if ((nm_hostorder & mask) == 0) {
 142              		.loc 1 99 43 discriminator 2 view .LVU39
 143 0012 FAE7     		b	.L8
 144              	.L12:
 101:Middlewares/Third_Party/LwIP/src/core/ipv4/ip4_addr.c ****       break;
 102:Middlewares/Third_Party/LwIP/src/core/ipv4/ip4_addr.c ****     }
 103:Middlewares/Third_Party/LwIP/src/core/ipv4/ip4_addr.c ****   }
 104:Middlewares/Third_Party/LwIP/src/core/ipv4/ip4_addr.c ****   /* then check that there is no one */
 105:Middlewares/Third_Party/LwIP/src/core/ipv4/ip4_addr.c ****   for (; mask != 0; mask >>= 1) {
 145              		.loc 1 105 10 is_stmt 1 discriminator 1 view .LVU40
 146              		.loc 1 105 3 is_stmt 0 discriminator 1 view .LVU41
 147 0014 1BB1     		cbz	r3, .L16
 106:Middlewares/Third_Party/LwIP/src/core/ipv4/ip4_addr.c ****     if ((nm_hostorder & mask) != 0) {
 148              		.loc 1 106 5 is_stmt 1 view .LVU42
 149              		.loc 1 106 8 is_stmt 0 view .LVU43
 150 0016 0342     		tst	r3, r0
 151 0018 03D1     		bne	.L14
 105:Middlewares/Third_Party/LwIP/src/core/ipv4/ip4_addr.c ****     if ((nm_hostorder & mask) != 0) {
 152              		.loc 1 105 21 is_stmt 1 view .LVU44
 105:Middlewares/Third_Party/LwIP/src/core/ipv4/ip4_addr.c ****     if ((nm_hostorder & mask) != 0) {
 153              		.loc 1 105 26 is_stmt 0 view .LVU45
 154 001a 5B08     		lsrs	r3, r3, #1
 155              	.LVL10:
 105:Middlewares/Third_Party/LwIP/src/core/ipv4/ip4_addr.c ****     if ((nm_hostorder & mask) != 0) {
 156              		.loc 1 105 26 view .LVU46
 157 001c FAE7     		b	.L12
 158              	.L16:
 107:Middlewares/Third_Party/LwIP/src/core/ipv4/ip4_addr.c ****       /* there is a one after the first zero -> invalid */
 108:Middlewares/Third_Party/LwIP/src/core/ipv4/ip4_addr.c ****       return 0;
 109:Middlewares/Third_Party/LwIP/src/core/ipv4/ip4_addr.c ****     }
 110:Middlewares/Third_Party/LwIP/src/core/ipv4/ip4_addr.c ****   }
 111:Middlewares/Third_Party/LwIP/src/core/ipv4/ip4_addr.c ****   /* no one after the first zero -> valid */
 112:Middlewares/Third_Party/LwIP/src/core/ipv4/ip4_addr.c ****   return 1;
 159              		.loc 1 112 10 view .LVU47
 160 001e 0120     		movs	r0, #1
 161              	.LVL11:
 162              	.L11:
 113:Middlewares/Third_Party/LwIP/src/core/ipv4/ip4_addr.c **** }
 163              		.loc 1 113 1 view .LVU48
 164 0020 08BD     		pop	{r3, pc}
 165              	.LVL12:
ARM GAS  /tmp/cch5jEqQ.s 			page 6


 166              	.L14:
 108:Middlewares/Third_Party/LwIP/src/core/ipv4/ip4_addr.c ****     }
 167              		.loc 1 108 14 view .LVU49
 168 0022 0020     		movs	r0, #0
 169              	.LVL13:
 108:Middlewares/Third_Party/LwIP/src/core/ipv4/ip4_addr.c ****     }
 170              		.loc 1 108 14 view .LVU50
 171 0024 FCE7     		b	.L11
 172              		.cfi_endproc
 173              	.LFE168:
 175              		.section	.rodata.ip4addr_aton.str1.4,"aMS",%progbits,1
 176              		.align	2
 177              	.LC0:
 178 0000 4D696464 		.ascii	"Middlewares/Third_Party/LwIP/src/core/ipv4/ip4_addr"
 178      6C657761 
 178      7265732F 
 178      54686972 
 178      645F5061 
 179 0033 2E6300   		.ascii	".c\000"
 180 0036 0000     		.align	2
 181              	.LC1:
 182 0038 756E6861 		.ascii	"unhandled\000"
 182      6E646C65 
 182      6400
 183 0042 0000     		.align	2
 184              	.LC2:
 185 0044 41737365 		.ascii	"Assertion \"%s\" failed at line %d in %s\012\000"
 185      7274696F 
 185      6E202225 
 185      73222066 
 185      61696C65 
 186              		.section	.text.ip4addr_aton,"ax",%progbits
 187              		.align	1
 188              		.global	ip4addr_aton
 189              		.syntax unified
 190              		.thumb
 191              		.thumb_func
 193              	ip4addr_aton:
 194              	.LVL14:
 195              	.LFB170:
 114:Middlewares/Third_Party/LwIP/src/core/ipv4/ip4_addr.c **** 
 115:Middlewares/Third_Party/LwIP/src/core/ipv4/ip4_addr.c **** /**
 116:Middlewares/Third_Party/LwIP/src/core/ipv4/ip4_addr.c ****  * Ascii internet address interpretation routine.
 117:Middlewares/Third_Party/LwIP/src/core/ipv4/ip4_addr.c ****  * The value returned is in network order.
 118:Middlewares/Third_Party/LwIP/src/core/ipv4/ip4_addr.c ****  *
 119:Middlewares/Third_Party/LwIP/src/core/ipv4/ip4_addr.c ****  * @param cp IP address in ascii representation (e.g. "127.0.0.1")
 120:Middlewares/Third_Party/LwIP/src/core/ipv4/ip4_addr.c ****  * @return ip address in network order
 121:Middlewares/Third_Party/LwIP/src/core/ipv4/ip4_addr.c ****  */
 122:Middlewares/Third_Party/LwIP/src/core/ipv4/ip4_addr.c **** u32_t
 123:Middlewares/Third_Party/LwIP/src/core/ipv4/ip4_addr.c **** ipaddr_addr(const char *cp)
 124:Middlewares/Third_Party/LwIP/src/core/ipv4/ip4_addr.c **** {
 125:Middlewares/Third_Party/LwIP/src/core/ipv4/ip4_addr.c ****   ip4_addr_t val;
 126:Middlewares/Third_Party/LwIP/src/core/ipv4/ip4_addr.c **** 
 127:Middlewares/Third_Party/LwIP/src/core/ipv4/ip4_addr.c ****   if (ip4addr_aton(cp, &val)) {
 128:Middlewares/Third_Party/LwIP/src/core/ipv4/ip4_addr.c ****     return ip4_addr_get_u32(&val);
 129:Middlewares/Third_Party/LwIP/src/core/ipv4/ip4_addr.c ****   }
 130:Middlewares/Third_Party/LwIP/src/core/ipv4/ip4_addr.c ****   return (IPADDR_NONE);
ARM GAS  /tmp/cch5jEqQ.s 			page 7


 131:Middlewares/Third_Party/LwIP/src/core/ipv4/ip4_addr.c **** }
 132:Middlewares/Third_Party/LwIP/src/core/ipv4/ip4_addr.c **** 
 133:Middlewares/Third_Party/LwIP/src/core/ipv4/ip4_addr.c **** /**
 134:Middlewares/Third_Party/LwIP/src/core/ipv4/ip4_addr.c ****  * Check whether "cp" is a valid ascii representation
 135:Middlewares/Third_Party/LwIP/src/core/ipv4/ip4_addr.c ****  * of an Internet address and convert to a binary address.
 136:Middlewares/Third_Party/LwIP/src/core/ipv4/ip4_addr.c ****  * Returns 1 if the address is valid, 0 if not.
 137:Middlewares/Third_Party/LwIP/src/core/ipv4/ip4_addr.c ****  * This replaces inet_addr, the return value from which
 138:Middlewares/Third_Party/LwIP/src/core/ipv4/ip4_addr.c ****  * cannot distinguish between failure and a local broadcast address.
 139:Middlewares/Third_Party/LwIP/src/core/ipv4/ip4_addr.c ****  *
 140:Middlewares/Third_Party/LwIP/src/core/ipv4/ip4_addr.c ****  * @param cp IP address in ascii representation (e.g. "127.0.0.1")
 141:Middlewares/Third_Party/LwIP/src/core/ipv4/ip4_addr.c ****  * @param addr pointer to which to save the ip address in network order
 142:Middlewares/Third_Party/LwIP/src/core/ipv4/ip4_addr.c ****  * @return 1 if cp could be converted to addr, 0 on failure
 143:Middlewares/Third_Party/LwIP/src/core/ipv4/ip4_addr.c ****  */
 144:Middlewares/Third_Party/LwIP/src/core/ipv4/ip4_addr.c **** int
 145:Middlewares/Third_Party/LwIP/src/core/ipv4/ip4_addr.c **** ip4addr_aton(const char *cp, ip4_addr_t *addr)
 146:Middlewares/Third_Party/LwIP/src/core/ipv4/ip4_addr.c **** {
 196              		.loc 1 146 1 is_stmt 1 view -0
 197              		.cfi_startproc
 198              		@ args = 0, pretend = 0, frame = 16
 199              		@ frame_needed = 0, uses_anonymous_args = 0
 200              		.loc 1 146 1 is_stmt 0 view .LVU52
 201 0000 30B5     		push	{r4, r5, lr}
 202              	.LCFI1:
 203              		.cfi_def_cfa_offset 12
 204              		.cfi_offset 4, -12
 205              		.cfi_offset 5, -8
 206              		.cfi_offset 14, -4
 207 0002 85B0     		sub	sp, sp, #20
 208              	.LCFI2:
 209              		.cfi_def_cfa_offset 32
 210 0004 0D46     		mov	r5, r1
 147:Middlewares/Third_Party/LwIP/src/core/ipv4/ip4_addr.c ****   u32_t val;
 211              		.loc 1 147 3 is_stmt 1 view .LVU53
 148:Middlewares/Third_Party/LwIP/src/core/ipv4/ip4_addr.c ****   u8_t base;
 212              		.loc 1 148 3 view .LVU54
 149:Middlewares/Third_Party/LwIP/src/core/ipv4/ip4_addr.c ****   char c;
 213              		.loc 1 149 3 view .LVU55
 150:Middlewares/Third_Party/LwIP/src/core/ipv4/ip4_addr.c ****   u32_t parts[4];
 214              		.loc 1 150 3 view .LVU56
 151:Middlewares/Third_Party/LwIP/src/core/ipv4/ip4_addr.c ****   u32_t *pp = parts;
 215              		.loc 1 151 3 view .LVU57
 216              	.LVL15:
 152:Middlewares/Third_Party/LwIP/src/core/ipv4/ip4_addr.c **** 
 153:Middlewares/Third_Party/LwIP/src/core/ipv4/ip4_addr.c ****   c = *cp;
 217              		.loc 1 153 3 view .LVU58
 218              		.loc 1 153 5 is_stmt 0 view .LVU59
 219 0006 0378     		ldrb	r3, [r0]	@ zero_extendqisi2
 220              	.LVL16:
 151:Middlewares/Third_Party/LwIP/src/core/ipv4/ip4_addr.c ****   u32_t *pp = parts;
 221              		.loc 1 151 10 view .LVU60
 222 0008 EE46     		mov	lr, sp
 223 000a 38E0     		b	.L26
 224              	.LVL17:
 225              	.L53:
 154:Middlewares/Third_Party/LwIP/src/core/ipv4/ip4_addr.c ****   for (;;) {
 155:Middlewares/Third_Party/LwIP/src/core/ipv4/ip4_addr.c ****     /*
 156:Middlewares/Third_Party/LwIP/src/core/ipv4/ip4_addr.c ****      * Collect number up to ``.''.
ARM GAS  /tmp/cch5jEqQ.s 			page 8


 157:Middlewares/Third_Party/LwIP/src/core/ipv4/ip4_addr.c ****      * Values are specified as for C:
 158:Middlewares/Third_Party/LwIP/src/core/ipv4/ip4_addr.c ****      * 0x=hex, 0=octal, 1-9=decimal.
 159:Middlewares/Third_Party/LwIP/src/core/ipv4/ip4_addr.c ****      */
 160:Middlewares/Third_Party/LwIP/src/core/ipv4/ip4_addr.c ****     if (!lwip_isdigit(c)) {
 161:Middlewares/Third_Party/LwIP/src/core/ipv4/ip4_addr.c ****       return 0;
 162:Middlewares/Third_Party/LwIP/src/core/ipv4/ip4_addr.c ****     }
 163:Middlewares/Third_Party/LwIP/src/core/ipv4/ip4_addr.c ****     val = 0;
 164:Middlewares/Third_Party/LwIP/src/core/ipv4/ip4_addr.c ****     base = 10;
 165:Middlewares/Third_Party/LwIP/src/core/ipv4/ip4_addr.c ****     if (c == '0') {
 166:Middlewares/Third_Party/LwIP/src/core/ipv4/ip4_addr.c ****       c = *++cp;
 226              		.loc 1 166 7 is_stmt 1 view .LVU61
 227              		.loc 1 166 9 is_stmt 0 view .LVU62
 228 000c 421C     		adds	r2, r0, #1
 229              	.LVL18:
 230              		.loc 1 166 9 view .LVU63
 231 000e 4378     		ldrb	r3, [r0, #1]	@ zero_extendqisi2
 232              	.LVL19:
 167:Middlewares/Third_Party/LwIP/src/core/ipv4/ip4_addr.c ****       if (c == 'x' || c == 'X') {
 233              		.loc 1 167 7 is_stmt 1 view .LVU64
 234              		.loc 1 167 10 is_stmt 0 view .LVU65
 235 0010 582B     		cmp	r3, #88
 236 0012 18BF     		it	ne
 237 0014 782B     		cmpne	r3, #120
 238 0016 03D1     		bne	.L36
 168:Middlewares/Third_Party/LwIP/src/core/ipv4/ip4_addr.c ****         base = 16;
 239              		.loc 1 168 9 is_stmt 1 view .LVU66
 240              	.LVL20:
 169:Middlewares/Third_Party/LwIP/src/core/ipv4/ip4_addr.c ****         c = *++cp;
 241              		.loc 1 169 9 view .LVU67
 242              		.loc 1 169 11 is_stmt 0 view .LVU68
 243 0018 8378     		ldrb	r3, [r0, #2]	@ zero_extendqisi2
 244              	.LVL21:
 245              		.loc 1 169 11 view .LVU69
 246 001a 0230     		adds	r0, r0, #2
 247              	.LVL22:
 168:Middlewares/Third_Party/LwIP/src/core/ipv4/ip4_addr.c ****         base = 16;
 248              		.loc 1 168 14 view .LVU70
 249 001c 1021     		movs	r1, #16
 250 001e 36E0     		b	.L19
 251              	.LVL23:
 252              	.L36:
 166:Middlewares/Third_Party/LwIP/src/core/ipv4/ip4_addr.c ****       if (c == 'x' || c == 'X') {
 253              		.loc 1 166 9 view .LVU71
 254 0020 1046     		mov	r0, r2
 170:Middlewares/Third_Party/LwIP/src/core/ipv4/ip4_addr.c ****       } else {
 171:Middlewares/Third_Party/LwIP/src/core/ipv4/ip4_addr.c ****         base = 8;
 255              		.loc 1 171 14 view .LVU72
 256 0022 0821     		movs	r1, #8
 257 0024 33E0     		b	.L19
 258              	.LVL24:
 259              	.L51:
 172:Middlewares/Third_Party/LwIP/src/core/ipv4/ip4_addr.c ****       }
 173:Middlewares/Third_Party/LwIP/src/core/ipv4/ip4_addr.c ****     }
 174:Middlewares/Third_Party/LwIP/src/core/ipv4/ip4_addr.c ****     for (;;) {
 175:Middlewares/Third_Party/LwIP/src/core/ipv4/ip4_addr.c ****       if (lwip_isdigit(c)) {
 176:Middlewares/Third_Party/LwIP/src/core/ipv4/ip4_addr.c ****         val = (val * base) + (u32_t)(c - '0');
 260              		.loc 1 176 9 is_stmt 1 view .LVU73
ARM GAS  /tmp/cch5jEqQ.s 			page 9


 261              		.loc 1 176 28 is_stmt 0 view .LVU74
 262 0026 04FB0133 		mla	r3, r4, r1, r3
 263              	.LVL25:
 264              		.loc 1 176 13 view .LVU75
 265 002a A3F13004 		sub	r4, r3, #48
 266              	.LVL26:
 177:Middlewares/Third_Party/LwIP/src/core/ipv4/ip4_addr.c ****         c = *++cp;
 267              		.loc 1 177 9 is_stmt 1 view .LVU76
 268              		.loc 1 177 11 is_stmt 0 view .LVU77
 269 002e 10F8013F 		ldrb	r3, [r0, #1]!	@ zero_extendqisi2
 270              	.LVL27:
 271              	.L20:
 174:Middlewares/Third_Party/LwIP/src/core/ipv4/ip4_addr.c ****       if (lwip_isdigit(c)) {
 272              		.loc 1 174 5 is_stmt 1 view .LVU78
 175:Middlewares/Third_Party/LwIP/src/core/ipv4/ip4_addr.c ****         val = (val * base) + (u32_t)(c - '0');
 273              		.loc 1 175 7 view .LVU79
 175:Middlewares/Third_Party/LwIP/src/core/ipv4/ip4_addr.c ****         val = (val * base) + (u32_t)(c - '0');
 274              		.loc 1 175 11 is_stmt 0 view .LVU80
 275 0032 494A     		ldr	r2, .L54
 276 0034 13F802C0 		ldrb	ip, [r3, r2]	@ zero_extendqisi2
 175:Middlewares/Third_Party/LwIP/src/core/ipv4/ip4_addr.c ****         val = (val * base) + (u32_t)(c - '0');
 277              		.loc 1 175 10 view .LVU81
 278 0038 1CF0040F 		tst	ip, #4
 279 003c F3D1     		bne	.L51
 178:Middlewares/Third_Party/LwIP/src/core/ipv4/ip4_addr.c ****       } else if (base == 16 && lwip_isxdigit(c)) {
 280              		.loc 1 178 14 is_stmt 1 view .LVU82
 281              		.loc 1 178 17 is_stmt 0 view .LVU83
 282 003e 1029     		cmp	r1, #16
 283 0040 12D1     		bne	.L23
 284              		.loc 1 178 29 discriminator 1 view .LVU84
 285 0042 1CF0440F 		tst	ip, #68
 286 0046 0FD0     		beq	.L23
 179:Middlewares/Third_Party/LwIP/src/core/ipv4/ip4_addr.c ****         val = (val << 4) | (u32_t)(c + 10 - (lwip_islower(c) ? 'a' : 'A'));
 287              		.loc 1 179 9 is_stmt 1 view .LVU85
 288              		.loc 1 179 20 is_stmt 0 view .LVU86
 289 0048 2401     		lsls	r4, r4, #4
 290              	.LVL28:
 291              		.loc 1 179 38 view .LVU87
 292 004a 03F10A02 		add	r2, r3, #10
 293              		.loc 1 179 68 view .LVU88
 294 004e 0CF0030C 		and	ip, ip, #3
 295 0052 BCF1020F 		cmp	ip, #2
 296 0056 05D0     		beq	.L52
 297 0058 4123     		movs	r3, #65
 298              	.LVL29:
 299              	.L24:
 300              		.loc 1 179 43 discriminator 4 view .LVU89
 301 005a D21A     		subs	r2, r2, r3
 302              		.loc 1 179 13 discriminator 4 view .LVU90
 303 005c 1443     		orrs	r4, r4, r2
 304              	.LVL30:
 180:Middlewares/Third_Party/LwIP/src/core/ipv4/ip4_addr.c ****         c = *++cp;
 305              		.loc 1 180 9 is_stmt 1 discriminator 4 view .LVU91
 306              		.loc 1 180 11 is_stmt 0 discriminator 4 view .LVU92
 307 005e 10F8013F 		ldrb	r3, [r0, #1]!	@ zero_extendqisi2
 308              	.LVL31:
 309              		.loc 1 180 11 discriminator 4 view .LVU93
ARM GAS  /tmp/cch5jEqQ.s 			page 10


 310 0062 E6E7     		b	.L20
 311              	.LVL32:
 312              	.L52:
 179:Middlewares/Third_Party/LwIP/src/core/ipv4/ip4_addr.c ****         val = (val << 4) | (u32_t)(c + 10 - (lwip_islower(c) ? 'a' : 'A'));
 313              		.loc 1 179 68 view .LVU94
 314 0064 6123     		movs	r3, #97
 315              	.LVL33:
 179:Middlewares/Third_Party/LwIP/src/core/ipv4/ip4_addr.c ****         val = (val << 4) | (u32_t)(c + 10 - (lwip_islower(c) ? 'a' : 'A'));
 316              		.loc 1 179 68 view .LVU95
 317 0066 F8E7     		b	.L24
 318              	.LVL34:
 319              	.L23:
 181:Middlewares/Third_Party/LwIP/src/core/ipv4/ip4_addr.c ****       } else {
 182:Middlewares/Third_Party/LwIP/src/core/ipv4/ip4_addr.c ****         break;
 183:Middlewares/Third_Party/LwIP/src/core/ipv4/ip4_addr.c ****       }
 184:Middlewares/Third_Party/LwIP/src/core/ipv4/ip4_addr.c ****     }
 185:Middlewares/Third_Party/LwIP/src/core/ipv4/ip4_addr.c ****     if (c == '.') {
 320              		.loc 1 185 5 is_stmt 1 view .LVU96
 321              		.loc 1 185 8 is_stmt 0 view .LVU97
 322 0068 2E2B     		cmp	r3, #46
 323 006a 12D1     		bne	.L25
 186:Middlewares/Third_Party/LwIP/src/core/ipv4/ip4_addr.c ****       /*
 187:Middlewares/Third_Party/LwIP/src/core/ipv4/ip4_addr.c ****        * Internet format:
 188:Middlewares/Third_Party/LwIP/src/core/ipv4/ip4_addr.c ****        *  a.b.c.d
 189:Middlewares/Third_Party/LwIP/src/core/ipv4/ip4_addr.c ****        *  a.b.c   (with c treated as 16 bits)
 190:Middlewares/Third_Party/LwIP/src/core/ipv4/ip4_addr.c ****        *  a.b (with b treated as 24 bits)
 191:Middlewares/Third_Party/LwIP/src/core/ipv4/ip4_addr.c ****        */
 192:Middlewares/Third_Party/LwIP/src/core/ipv4/ip4_addr.c ****       if (pp >= parts + 3) {
 324              		.loc 1 192 7 is_stmt 1 view .LVU98
 325              		.loc 1 192 10 is_stmt 0 view .LVU99
 326 006c 03AB     		add	r3, sp, #12
 327              	.LVL35:
 328              		.loc 1 192 10 view .LVU100
 329 006e 9E45     		cmp	lr, r3
 330 0070 58D2     		bcs	.L38
 193:Middlewares/Third_Party/LwIP/src/core/ipv4/ip4_addr.c ****         return 0;
 194:Middlewares/Third_Party/LwIP/src/core/ipv4/ip4_addr.c ****       }
 195:Middlewares/Third_Party/LwIP/src/core/ipv4/ip4_addr.c ****       *pp++ = val;
 331              		.loc 1 195 7 is_stmt 1 view .LVU101
 332              		.loc 1 195 10 is_stmt 0 view .LVU102
 333 0072 7246     		mov	r2, lr
 334              	.LVL36:
 335              		.loc 1 195 13 view .LVU103
 336 0074 42F8044B 		str	r4, [r2], #4
 337              	.LVL37:
 196:Middlewares/Third_Party/LwIP/src/core/ipv4/ip4_addr.c ****       c = *++cp;
 338              		.loc 1 196 7 is_stmt 1 view .LVU104
 339              		.loc 1 196 9 is_stmt 0 view .LVU105
 340 0078 4378     		ldrb	r3, [r0, #1]	@ zero_extendqisi2
 341              	.LVL38:
 154:Middlewares/Third_Party/LwIP/src/core/ipv4/ip4_addr.c ****     /*
 342              		.loc 1 154 9 is_stmt 1 view .LVU106
 195:Middlewares/Third_Party/LwIP/src/core/ipv4/ip4_addr.c ****       c = *++cp;
 343              		.loc 1 195 10 is_stmt 0 view .LVU107
 344 007a 9646     		mov	lr, r2
 345              		.loc 1 196 9 view .LVU108
 346 007c 0130     		adds	r0, r0, #1
ARM GAS  /tmp/cch5jEqQ.s 			page 11


 347              	.LVL39:
 348              	.L26:
 154:Middlewares/Third_Party/LwIP/src/core/ipv4/ip4_addr.c ****     /*
 349              		.loc 1 154 3 is_stmt 1 view .LVU109
 160:Middlewares/Third_Party/LwIP/src/core/ipv4/ip4_addr.c ****       return 0;
 350              		.loc 1 160 5 view .LVU110
 160:Middlewares/Third_Party/LwIP/src/core/ipv4/ip4_addr.c ****       return 0;
 351              		.loc 1 160 10 is_stmt 0 view .LVU111
 352 007e 364A     		ldr	r2, .L54
 353 0080 9A5C     		ldrb	r2, [r3, r2]	@ zero_extendqisi2
 160:Middlewares/Third_Party/LwIP/src/core/ipv4/ip4_addr.c ****       return 0;
 354              		.loc 1 160 8 view .LVU112
 355 0082 12F0040F 		tst	r2, #4
 356 0086 4BD0     		beq	.L34
 163:Middlewares/Third_Party/LwIP/src/core/ipv4/ip4_addr.c ****     base = 10;
 357              		.loc 1 163 5 is_stmt 1 view .LVU113
 358              	.LVL40:
 164:Middlewares/Third_Party/LwIP/src/core/ipv4/ip4_addr.c ****     if (c == '0') {
 359              		.loc 1 164 5 view .LVU114
 165:Middlewares/Third_Party/LwIP/src/core/ipv4/ip4_addr.c ****       c = *++cp;
 360              		.loc 1 165 5 view .LVU115
 165:Middlewares/Third_Party/LwIP/src/core/ipv4/ip4_addr.c ****       c = *++cp;
 361              		.loc 1 165 8 is_stmt 0 view .LVU116
 362 0088 302B     		cmp	r3, #48
 363 008a BFD0     		beq	.L53
 164:Middlewares/Third_Party/LwIP/src/core/ipv4/ip4_addr.c ****     if (c == '0') {
 364              		.loc 1 164 10 view .LVU117
 365 008c 0A21     		movs	r1, #10
 366              	.LVL41:
 367              	.L19:
 171:Middlewares/Third_Party/LwIP/src/core/ipv4/ip4_addr.c ****       }
 368              		.loc 1 171 14 view .LVU118
 369 008e 0024     		movs	r4, #0
 370 0090 CFE7     		b	.L20
 371              	.LVL42:
 372              	.L25:
 197:Middlewares/Third_Party/LwIP/src/core/ipv4/ip4_addr.c ****     } else {
 198:Middlewares/Third_Party/LwIP/src/core/ipv4/ip4_addr.c ****       break;
 199:Middlewares/Third_Party/LwIP/src/core/ipv4/ip4_addr.c ****     }
 200:Middlewares/Third_Party/LwIP/src/core/ipv4/ip4_addr.c ****   }
 201:Middlewares/Third_Party/LwIP/src/core/ipv4/ip4_addr.c ****   /*
 202:Middlewares/Third_Party/LwIP/src/core/ipv4/ip4_addr.c ****    * Check for trailing characters.
 203:Middlewares/Third_Party/LwIP/src/core/ipv4/ip4_addr.c ****    */
 204:Middlewares/Third_Party/LwIP/src/core/ipv4/ip4_addr.c ****   if (c != '\0' && !lwip_isspace(c)) {
 373              		.loc 1 204 3 is_stmt 1 view .LVU119
 374              		.loc 1 204 6 is_stmt 0 view .LVU120
 375 0092 13B1     		cbz	r3, .L27
 376              		.loc 1 204 17 discriminator 1 view .LVU121
 377 0094 1CF0080F 		tst	ip, #8
 378 0098 47D0     		beq	.L39
 379              	.L27:
 205:Middlewares/Third_Party/LwIP/src/core/ipv4/ip4_addr.c ****     return 0;
 206:Middlewares/Third_Party/LwIP/src/core/ipv4/ip4_addr.c ****   }
 207:Middlewares/Third_Party/LwIP/src/core/ipv4/ip4_addr.c ****   /*
 208:Middlewares/Third_Party/LwIP/src/core/ipv4/ip4_addr.c ****    * Concoct the address according to
 209:Middlewares/Third_Party/LwIP/src/core/ipv4/ip4_addr.c ****    * the number of parts specified.
 210:Middlewares/Third_Party/LwIP/src/core/ipv4/ip4_addr.c ****    */
ARM GAS  /tmp/cch5jEqQ.s 			page 12


 211:Middlewares/Third_Party/LwIP/src/core/ipv4/ip4_addr.c ****   switch (pp - parts + 1) {
 380              		.loc 1 211 3 is_stmt 1 view .LVU122
 381              		.loc 1 211 14 is_stmt 0 view .LVU123
 382 009a 6846     		mov	r0, sp
 383              	.LVL43:
 384              		.loc 1 211 14 view .LVU124
 385 009c AEEB0000 		sub	r0, lr, r0
 386 00a0 8010     		asrs	r0, r0, #2
 387              		.loc 1 211 22 view .LVU125
 388 00a2 0130     		adds	r0, r0, #1
 389              		.loc 1 211 3 view .LVU126
 390 00a4 0428     		cmp	r0, #4
 391 00a6 34D8     		bhi	.L28
 392 00a8 DFE800F0 		tbb	[pc, r0]
 393              	.LVL44:
 394              	.L30:
 395 00ac 3D       		.byte	(.L17-.L30)/2
 396 00ad 0B       		.byte	(.L33-.L30)/2
 397 00ae 03       		.byte	(.L32-.L30)/2
 398 00af 13       		.byte	(.L31-.L30)/2
 399 00b0 21       		.byte	(.L29-.L30)/2
 400 00b1 00       		.p2align 1
 401              	.L32:
 212:Middlewares/Third_Party/LwIP/src/core/ipv4/ip4_addr.c **** 
 213:Middlewares/Third_Party/LwIP/src/core/ipv4/ip4_addr.c ****     case 0:
 214:Middlewares/Third_Party/LwIP/src/core/ipv4/ip4_addr.c ****       return 0;       /* initial nondigit */
 215:Middlewares/Third_Party/LwIP/src/core/ipv4/ip4_addr.c **** 
 216:Middlewares/Third_Party/LwIP/src/core/ipv4/ip4_addr.c ****     case 1:             /* a -- 32 bits */
 217:Middlewares/Third_Party/LwIP/src/core/ipv4/ip4_addr.c ****       break;
 218:Middlewares/Third_Party/LwIP/src/core/ipv4/ip4_addr.c **** 
 219:Middlewares/Third_Party/LwIP/src/core/ipv4/ip4_addr.c ****     case 2:             /* a.b -- 8.24 bits */
 220:Middlewares/Third_Party/LwIP/src/core/ipv4/ip4_addr.c ****       if (val > 0xffffffUL) {
 402              		.loc 1 220 7 is_stmt 1 view .LVU127
 403              		.loc 1 220 10 is_stmt 0 view .LVU128
 404 00b2 B4F1807F 		cmp	r4, #16777216
 405 00b6 3AD2     		bcs	.L40
 221:Middlewares/Third_Party/LwIP/src/core/ipv4/ip4_addr.c ****         return 0;
 222:Middlewares/Third_Party/LwIP/src/core/ipv4/ip4_addr.c ****       }
 223:Middlewares/Third_Party/LwIP/src/core/ipv4/ip4_addr.c ****       if (parts[0] > 0xff) {
 406              		.loc 1 223 7 is_stmt 1 view .LVU129
 407              		.loc 1 223 16 is_stmt 0 view .LVU130
 408 00b8 009B     		ldr	r3, [sp]
 409              		.loc 1 223 10 view .LVU131
 410 00ba FF2B     		cmp	r3, #255
 411 00bc 39D8     		bhi	.L41
 224:Middlewares/Third_Party/LwIP/src/core/ipv4/ip4_addr.c ****         return 0;
 225:Middlewares/Third_Party/LwIP/src/core/ipv4/ip4_addr.c ****       }
 226:Middlewares/Third_Party/LwIP/src/core/ipv4/ip4_addr.c ****       val |= parts[0] << 24;
 412              		.loc 1 226 7 is_stmt 1 view .LVU132
 413              		.loc 1 226 11 is_stmt 0 view .LVU133
 414 00be 44EA0364 		orr	r4, r4, r3, lsl #24
 415              	.LVL45:
 227:Middlewares/Third_Party/LwIP/src/core/ipv4/ip4_addr.c ****       break;
 416              		.loc 1 227 7 is_stmt 1 view .LVU134
 417              	.L33:
 228:Middlewares/Third_Party/LwIP/src/core/ipv4/ip4_addr.c **** 
 229:Middlewares/Third_Party/LwIP/src/core/ipv4/ip4_addr.c ****     case 3:             /* a.b.c -- 8.8.16 bits */
ARM GAS  /tmp/cch5jEqQ.s 			page 13


 230:Middlewares/Third_Party/LwIP/src/core/ipv4/ip4_addr.c ****       if (val > 0xffff) {
 231:Middlewares/Third_Party/LwIP/src/core/ipv4/ip4_addr.c ****         return 0;
 232:Middlewares/Third_Party/LwIP/src/core/ipv4/ip4_addr.c ****       }
 233:Middlewares/Third_Party/LwIP/src/core/ipv4/ip4_addr.c ****       if ((parts[0] > 0xff) || (parts[1] > 0xff)) {
 234:Middlewares/Third_Party/LwIP/src/core/ipv4/ip4_addr.c ****         return 0;
 235:Middlewares/Third_Party/LwIP/src/core/ipv4/ip4_addr.c ****       }
 236:Middlewares/Third_Party/LwIP/src/core/ipv4/ip4_addr.c ****       val |= (parts[0] << 24) | (parts[1] << 16);
 237:Middlewares/Third_Party/LwIP/src/core/ipv4/ip4_addr.c ****       break;
 238:Middlewares/Third_Party/LwIP/src/core/ipv4/ip4_addr.c **** 
 239:Middlewares/Third_Party/LwIP/src/core/ipv4/ip4_addr.c ****     case 4:             /* a.b.c.d -- 8.8.8.8 bits */
 240:Middlewares/Third_Party/LwIP/src/core/ipv4/ip4_addr.c ****       if (val > 0xff) {
 241:Middlewares/Third_Party/LwIP/src/core/ipv4/ip4_addr.c ****         return 0;
 242:Middlewares/Third_Party/LwIP/src/core/ipv4/ip4_addr.c ****       }
 243:Middlewares/Third_Party/LwIP/src/core/ipv4/ip4_addr.c ****       if ((parts[0] > 0xff) || (parts[1] > 0xff) || (parts[2] > 0xff)) {
 244:Middlewares/Third_Party/LwIP/src/core/ipv4/ip4_addr.c ****         return 0;
 245:Middlewares/Third_Party/LwIP/src/core/ipv4/ip4_addr.c ****       }
 246:Middlewares/Third_Party/LwIP/src/core/ipv4/ip4_addr.c ****       val |= (parts[0] << 24) | (parts[1] << 16) | (parts[2] << 8);
 247:Middlewares/Third_Party/LwIP/src/core/ipv4/ip4_addr.c ****       break;
 248:Middlewares/Third_Party/LwIP/src/core/ipv4/ip4_addr.c ****     default:
 249:Middlewares/Third_Party/LwIP/src/core/ipv4/ip4_addr.c ****       LWIP_ASSERT("unhandled", 0);
 250:Middlewares/Third_Party/LwIP/src/core/ipv4/ip4_addr.c ****       break;
 251:Middlewares/Third_Party/LwIP/src/core/ipv4/ip4_addr.c ****   }
 252:Middlewares/Third_Party/LwIP/src/core/ipv4/ip4_addr.c ****   if (addr) {
 418              		.loc 1 252 3 view .LVU135
 419              		.loc 1 252 6 is_stmt 0 view .LVU136
 420 00c2 002D     		cmp	r5, #0
 421 00c4 45D0     		beq	.L49
 253:Middlewares/Third_Party/LwIP/src/core/ipv4/ip4_addr.c ****     ip4_addr_set_u32(addr, lwip_htonl(val));
 422              		.loc 1 253 5 is_stmt 1 view .LVU137
 423 00c6 2046     		mov	r0, r4
 424 00c8 FFF7FEFF 		bl	lwip_htonl
 425              	.LVL46:
 426 00cc 2860     		str	r0, [r5]
 254:Middlewares/Third_Party/LwIP/src/core/ipv4/ip4_addr.c ****   }
 255:Middlewares/Third_Party/LwIP/src/core/ipv4/ip4_addr.c ****   return 1;
 427              		.loc 1 255 10 is_stmt 0 view .LVU138
 428 00ce 0120     		movs	r0, #1
 429 00d0 29E0     		b	.L17
 430              	.LVL47:
 431              	.L31:
 230:Middlewares/Third_Party/LwIP/src/core/ipv4/ip4_addr.c ****         return 0;
 432              		.loc 1 230 7 is_stmt 1 view .LVU139
 230:Middlewares/Third_Party/LwIP/src/core/ipv4/ip4_addr.c ****         return 0;
 433              		.loc 1 230 10 is_stmt 0 view .LVU140
 434 00d2 B4F5803F 		cmp	r4, #65536
 435 00d6 2ED2     		bcs	.L42
 233:Middlewares/Third_Party/LwIP/src/core/ipv4/ip4_addr.c ****         return 0;
 436              		.loc 1 233 7 is_stmt 1 view .LVU141
 233:Middlewares/Third_Party/LwIP/src/core/ipv4/ip4_addr.c ****         return 0;
 437              		.loc 1 233 17 is_stmt 0 view .LVU142
 438 00d8 009A     		ldr	r2, [sp]
 233:Middlewares/Third_Party/LwIP/src/core/ipv4/ip4_addr.c ****         return 0;
 439              		.loc 1 233 10 view .LVU143
 440 00da FF2A     		cmp	r2, #255
 441 00dc 2DD8     		bhi	.L43
 233:Middlewares/Third_Party/LwIP/src/core/ipv4/ip4_addr.c ****         return 0;
 442              		.loc 1 233 38 discriminator 1 view .LVU144
ARM GAS  /tmp/cch5jEqQ.s 			page 14


 443 00de 019B     		ldr	r3, [sp, #4]
 233:Middlewares/Third_Party/LwIP/src/core/ipv4/ip4_addr.c ****         return 0;
 444              		.loc 1 233 29 discriminator 1 view .LVU145
 445 00e0 FF2B     		cmp	r3, #255
 446 00e2 2CD8     		bhi	.L44
 236:Middlewares/Third_Party/LwIP/src/core/ipv4/ip4_addr.c ****       break;
 447              		.loc 1 236 7 is_stmt 1 view .LVU146
 236:Middlewares/Third_Party/LwIP/src/core/ipv4/ip4_addr.c ****       break;
 448              		.loc 1 236 43 is_stmt 0 view .LVU147
 449 00e4 1B04     		lsls	r3, r3, #16
 236:Middlewares/Third_Party/LwIP/src/core/ipv4/ip4_addr.c ****       break;
 450              		.loc 1 236 31 view .LVU148
 451 00e6 43EA0263 		orr	r3, r3, r2, lsl #24
 236:Middlewares/Third_Party/LwIP/src/core/ipv4/ip4_addr.c ****       break;
 452              		.loc 1 236 11 view .LVU149
 453 00ea 1C43     		orrs	r4, r4, r3
 454              	.LVL48:
 237:Middlewares/Third_Party/LwIP/src/core/ipv4/ip4_addr.c **** 
 455              		.loc 1 237 7 is_stmt 1 view .LVU150
 456 00ec E9E7     		b	.L33
 457              	.L29:
 240:Middlewares/Third_Party/LwIP/src/core/ipv4/ip4_addr.c ****         return 0;
 458              		.loc 1 240 7 view .LVU151
 240:Middlewares/Third_Party/LwIP/src/core/ipv4/ip4_addr.c ****         return 0;
 459              		.loc 1 240 10 is_stmt 0 view .LVU152
 460 00ee FF2C     		cmp	r4, #255
 461 00f0 27D8     		bhi	.L45
 243:Middlewares/Third_Party/LwIP/src/core/ipv4/ip4_addr.c ****         return 0;
 462              		.loc 1 243 7 is_stmt 1 view .LVU153
 243:Middlewares/Third_Party/LwIP/src/core/ipv4/ip4_addr.c ****         return 0;
 463              		.loc 1 243 17 is_stmt 0 view .LVU154
 464 00f2 0099     		ldr	r1, [sp]
 465              	.LVL49:
 243:Middlewares/Third_Party/LwIP/src/core/ipv4/ip4_addr.c ****         return 0;
 466              		.loc 1 243 10 view .LVU155
 467 00f4 FF29     		cmp	r1, #255
 468 00f6 26D8     		bhi	.L46
 243:Middlewares/Third_Party/LwIP/src/core/ipv4/ip4_addr.c ****         return 0;
 469              		.loc 1 243 38 discriminator 1 view .LVU156
 470 00f8 019B     		ldr	r3, [sp, #4]
 243:Middlewares/Third_Party/LwIP/src/core/ipv4/ip4_addr.c ****         return 0;
 471              		.loc 1 243 29 discriminator 1 view .LVU157
 472 00fa FF2B     		cmp	r3, #255
 473 00fc 25D8     		bhi	.L47
 243:Middlewares/Third_Party/LwIP/src/core/ipv4/ip4_addr.c ****         return 0;
 474              		.loc 1 243 59 discriminator 2 view .LVU158
 475 00fe 029A     		ldr	r2, [sp, #8]
 243:Middlewares/Third_Party/LwIP/src/core/ipv4/ip4_addr.c ****         return 0;
 476              		.loc 1 243 50 discriminator 2 view .LVU159
 477 0100 FF2A     		cmp	r2, #255
 478 0102 24D8     		bhi	.L48
 246:Middlewares/Third_Party/LwIP/src/core/ipv4/ip4_addr.c ****       break;
 479              		.loc 1 246 7 is_stmt 1 view .LVU160
 246:Middlewares/Third_Party/LwIP/src/core/ipv4/ip4_addr.c ****       break;
 480              		.loc 1 246 43 is_stmt 0 view .LVU161
 481 0104 1B04     		lsls	r3, r3, #16
 246:Middlewares/Third_Party/LwIP/src/core/ipv4/ip4_addr.c ****       break;
ARM GAS  /tmp/cch5jEqQ.s 			page 15


 482              		.loc 1 246 31 view .LVU162
 483 0106 43EA0163 		orr	r3, r3, r1, lsl #24
 246:Middlewares/Third_Party/LwIP/src/core/ipv4/ip4_addr.c ****       break;
 484              		.loc 1 246 50 view .LVU163
 485 010a 43EA0223 		orr	r3, r3, r2, lsl #8
 246:Middlewares/Third_Party/LwIP/src/core/ipv4/ip4_addr.c ****       break;
 486              		.loc 1 246 11 view .LVU164
 487 010e 1C43     		orrs	r4, r4, r3
 488              	.LVL50:
 247:Middlewares/Third_Party/LwIP/src/core/ipv4/ip4_addr.c ****     default:
 489              		.loc 1 247 7 is_stmt 1 view .LVU165
 490 0110 D7E7     		b	.L33
 491              	.LVL51:
 492              	.L28:
 249:Middlewares/Third_Party/LwIP/src/core/ipv4/ip4_addr.c ****       break;
 493              		.loc 1 249 7 discriminator 1 view .LVU166
 249:Middlewares/Third_Party/LwIP/src/core/ipv4/ip4_addr.c ****       break;
 494              		.loc 1 249 7 discriminator 1 view .LVU167
 249:Middlewares/Third_Party/LwIP/src/core/ipv4/ip4_addr.c ****       break;
 495              		.loc 1 249 7 discriminator 1 view .LVU168
 249:Middlewares/Third_Party/LwIP/src/core/ipv4/ip4_addr.c ****       break;
 496              		.loc 1 249 7 discriminator 1 view .LVU169
 497 0112 124B     		ldr	r3, .L54+4
 498 0114 F922     		movs	r2, #249
 499 0116 1249     		ldr	r1, .L54+8
 500              	.LVL52:
 249:Middlewares/Third_Party/LwIP/src/core/ipv4/ip4_addr.c ****       break;
 501              		.loc 1 249 7 is_stmt 0 discriminator 1 view .LVU170
 502 0118 1248     		ldr	r0, .L54+12
 503 011a FFF7FEFF 		bl	printf
 504              	.LVL53:
 249:Middlewares/Third_Party/LwIP/src/core/ipv4/ip4_addr.c ****       break;
 505              		.loc 1 249 7 is_stmt 1 discriminator 1 view .LVU171
 249:Middlewares/Third_Party/LwIP/src/core/ipv4/ip4_addr.c ****       break;
 506              		.loc 1 249 7 discriminator 1 view .LVU172
 250:Middlewares/Third_Party/LwIP/src/core/ipv4/ip4_addr.c ****   }
 507              		.loc 1 250 7 discriminator 1 view .LVU173
 508 011e D0E7     		b	.L33
 509              	.LVL54:
 510              	.L34:
 161:Middlewares/Third_Party/LwIP/src/core/ipv4/ip4_addr.c ****     }
 511              		.loc 1 161 14 is_stmt 0 view .LVU174
 512 0120 0020     		movs	r0, #0
 513              	.LVL55:
 161:Middlewares/Third_Party/LwIP/src/core/ipv4/ip4_addr.c ****     }
 514              		.loc 1 161 14 view .LVU175
 515 0122 00E0     		b	.L17
 516              	.LVL56:
 517              	.L38:
 193:Middlewares/Third_Party/LwIP/src/core/ipv4/ip4_addr.c ****       }
 518              		.loc 1 193 16 view .LVU176
 519 0124 0020     		movs	r0, #0
 520              	.LVL57:
 521              	.L17:
 256:Middlewares/Third_Party/LwIP/src/core/ipv4/ip4_addr.c **** }
 522              		.loc 1 256 1 view .LVU177
 523 0126 05B0     		add	sp, sp, #20
ARM GAS  /tmp/cch5jEqQ.s 			page 16


 524              	.LCFI3:
 525              		.cfi_remember_state
 526              		.cfi_def_cfa_offset 12
 527              		@ sp needed
 528 0128 30BD     		pop	{r4, r5, pc}
 529              	.LVL58:
 530              	.L39:
 531              	.LCFI4:
 532              		.cfi_restore_state
 205:Middlewares/Third_Party/LwIP/src/core/ipv4/ip4_addr.c ****   }
 533              		.loc 1 205 12 view .LVU178
 534 012a 0020     		movs	r0, #0
 535              	.LVL59:
 205:Middlewares/Third_Party/LwIP/src/core/ipv4/ip4_addr.c ****   }
 536              		.loc 1 205 12 view .LVU179
 537 012c FBE7     		b	.L17
 538              	.LVL60:
 539              	.L40:
 221:Middlewares/Third_Party/LwIP/src/core/ipv4/ip4_addr.c ****       }
 540              		.loc 1 221 16 view .LVU180
 541 012e 0020     		movs	r0, #0
 542 0130 F9E7     		b	.L17
 543              	.L41:
 224:Middlewares/Third_Party/LwIP/src/core/ipv4/ip4_addr.c ****       }
 544              		.loc 1 224 16 view .LVU181
 545 0132 0020     		movs	r0, #0
 546 0134 F7E7     		b	.L17
 547              	.L42:
 231:Middlewares/Third_Party/LwIP/src/core/ipv4/ip4_addr.c ****       }
 548              		.loc 1 231 16 view .LVU182
 549 0136 0020     		movs	r0, #0
 550 0138 F5E7     		b	.L17
 551              	.L43:
 234:Middlewares/Third_Party/LwIP/src/core/ipv4/ip4_addr.c ****       }
 552              		.loc 1 234 16 view .LVU183
 553 013a 0020     		movs	r0, #0
 554 013c F3E7     		b	.L17
 555              	.L44:
 556 013e 0020     		movs	r0, #0
 557 0140 F1E7     		b	.L17
 558              	.L45:
 241:Middlewares/Third_Party/LwIP/src/core/ipv4/ip4_addr.c ****       }
 559              		.loc 1 241 16 view .LVU184
 560 0142 0020     		movs	r0, #0
 561 0144 EFE7     		b	.L17
 562              	.LVL61:
 563              	.L46:
 244:Middlewares/Third_Party/LwIP/src/core/ipv4/ip4_addr.c ****       }
 564              		.loc 1 244 16 view .LVU185
 565 0146 0020     		movs	r0, #0
 566 0148 EDE7     		b	.L17
 567              	.L47:
 568 014a 0020     		movs	r0, #0
 569 014c EBE7     		b	.L17
 570              	.L48:
 571 014e 0020     		movs	r0, #0
 572 0150 E9E7     		b	.L17
ARM GAS  /tmp/cch5jEqQ.s 			page 17


 573              	.LVL62:
 574              	.L49:
 255:Middlewares/Third_Party/LwIP/src/core/ipv4/ip4_addr.c **** }
 575              		.loc 1 255 10 view .LVU186
 576 0152 0120     		movs	r0, #1
 577 0154 E7E7     		b	.L17
 578              	.L55:
 579 0156 00BF     		.align	2
 580              	.L54:
 581 0158 01000000 		.word	_ctype_+1
 582 015c 00000000 		.word	.LC0
 583 0160 38000000 		.word	.LC1
 584 0164 44000000 		.word	.LC2
 585              		.cfi_endproc
 586              	.LFE170:
 588              		.section	.text.ipaddr_addr,"ax",%progbits
 589              		.align	1
 590              		.global	ipaddr_addr
 591              		.syntax unified
 592              		.thumb
 593              		.thumb_func
 595              	ipaddr_addr:
 596              	.LVL63:
 597              	.LFB169:
 124:Middlewares/Third_Party/LwIP/src/core/ipv4/ip4_addr.c ****   ip4_addr_t val;
 598              		.loc 1 124 1 is_stmt 1 view -0
 599              		.cfi_startproc
 600              		@ args = 0, pretend = 0, frame = 8
 601              		@ frame_needed = 0, uses_anonymous_args = 0
 124:Middlewares/Third_Party/LwIP/src/core/ipv4/ip4_addr.c ****   ip4_addr_t val;
 602              		.loc 1 124 1 is_stmt 0 view .LVU188
 603 0000 00B5     		push	{lr}
 604              	.LCFI5:
 605              		.cfi_def_cfa_offset 4
 606              		.cfi_offset 14, -4
 607 0002 83B0     		sub	sp, sp, #12
 608              	.LCFI6:
 609              		.cfi_def_cfa_offset 16
 125:Middlewares/Third_Party/LwIP/src/core/ipv4/ip4_addr.c **** 
 610              		.loc 1 125 3 is_stmt 1 view .LVU189
 127:Middlewares/Third_Party/LwIP/src/core/ipv4/ip4_addr.c ****     return ip4_addr_get_u32(&val);
 611              		.loc 1 127 3 view .LVU190
 127:Middlewares/Third_Party/LwIP/src/core/ipv4/ip4_addr.c ****     return ip4_addr_get_u32(&val);
 612              		.loc 1 127 7 is_stmt 0 view .LVU191
 613 0004 01A9     		add	r1, sp, #4
 614 0006 FFF7FEFF 		bl	ip4addr_aton
 615              	.LVL64:
 127:Middlewares/Third_Party/LwIP/src/core/ipv4/ip4_addr.c ****     return ip4_addr_get_u32(&val);
 616              		.loc 1 127 6 view .LVU192
 617 000a 20B9     		cbnz	r0, .L60
 130:Middlewares/Third_Party/LwIP/src/core/ipv4/ip4_addr.c **** }
 618              		.loc 1 130 10 view .LVU193
 619 000c 4FF0FF30 		mov	r0, #-1
 620              	.L56:
 131:Middlewares/Third_Party/LwIP/src/core/ipv4/ip4_addr.c **** 
 621              		.loc 1 131 1 view .LVU194
 622 0010 03B0     		add	sp, sp, #12
ARM GAS  /tmp/cch5jEqQ.s 			page 18


 623              	.LCFI7:
 624              		.cfi_remember_state
 625              		.cfi_def_cfa_offset 4
 626              		@ sp needed
 627 0012 5DF804FB 		ldr	pc, [sp], #4
 628              	.L60:
 629              	.LCFI8:
 630              		.cfi_restore_state
 128:Middlewares/Third_Party/LwIP/src/core/ipv4/ip4_addr.c ****   }
 631              		.loc 1 128 5 is_stmt 1 view .LVU195
 128:Middlewares/Third_Party/LwIP/src/core/ipv4/ip4_addr.c ****   }
 632              		.loc 1 128 12 is_stmt 0 view .LVU196
 633 0016 0198     		ldr	r0, [sp, #4]
 634 0018 FAE7     		b	.L56
 635              		.cfi_endproc
 636              	.LFE169:
 638              		.section	.text.ip4addr_ntoa_r,"ax",%progbits
 639              		.align	1
 640              		.global	ip4addr_ntoa_r
 641              		.syntax unified
 642              		.thumb
 643              		.thumb_func
 645              	ip4addr_ntoa_r:
 646              	.LVL65:
 647              	.LFB172:
 257:Middlewares/Third_Party/LwIP/src/core/ipv4/ip4_addr.c **** 
 258:Middlewares/Third_Party/LwIP/src/core/ipv4/ip4_addr.c **** /**
 259:Middlewares/Third_Party/LwIP/src/core/ipv4/ip4_addr.c ****  * Convert numeric IP address into decimal dotted ASCII representation.
 260:Middlewares/Third_Party/LwIP/src/core/ipv4/ip4_addr.c ****  * returns ptr to static buffer; not reentrant!
 261:Middlewares/Third_Party/LwIP/src/core/ipv4/ip4_addr.c ****  *
 262:Middlewares/Third_Party/LwIP/src/core/ipv4/ip4_addr.c ****  * @param addr ip address in network order to convert
 263:Middlewares/Third_Party/LwIP/src/core/ipv4/ip4_addr.c ****  * @return pointer to a global static (!) buffer that holds the ASCII
 264:Middlewares/Third_Party/LwIP/src/core/ipv4/ip4_addr.c ****  *         representation of addr
 265:Middlewares/Third_Party/LwIP/src/core/ipv4/ip4_addr.c ****  */
 266:Middlewares/Third_Party/LwIP/src/core/ipv4/ip4_addr.c **** char *
 267:Middlewares/Third_Party/LwIP/src/core/ipv4/ip4_addr.c **** ip4addr_ntoa(const ip4_addr_t *addr)
 268:Middlewares/Third_Party/LwIP/src/core/ipv4/ip4_addr.c **** {
 269:Middlewares/Third_Party/LwIP/src/core/ipv4/ip4_addr.c ****   static char str[IP4ADDR_STRLEN_MAX];
 270:Middlewares/Third_Party/LwIP/src/core/ipv4/ip4_addr.c ****   return ip4addr_ntoa_r(addr, str, IP4ADDR_STRLEN_MAX);
 271:Middlewares/Third_Party/LwIP/src/core/ipv4/ip4_addr.c **** }
 272:Middlewares/Third_Party/LwIP/src/core/ipv4/ip4_addr.c **** 
 273:Middlewares/Third_Party/LwIP/src/core/ipv4/ip4_addr.c **** /**
 274:Middlewares/Third_Party/LwIP/src/core/ipv4/ip4_addr.c ****  * Same as ip4addr_ntoa, but reentrant since a user-supplied buffer is used.
 275:Middlewares/Third_Party/LwIP/src/core/ipv4/ip4_addr.c ****  *
 276:Middlewares/Third_Party/LwIP/src/core/ipv4/ip4_addr.c ****  * @param addr ip address in network order to convert
 277:Middlewares/Third_Party/LwIP/src/core/ipv4/ip4_addr.c ****  * @param buf target buffer where the string is stored
 278:Middlewares/Third_Party/LwIP/src/core/ipv4/ip4_addr.c ****  * @param buflen length of buf
 279:Middlewares/Third_Party/LwIP/src/core/ipv4/ip4_addr.c ****  * @return either pointer to buf which now holds the ASCII
 280:Middlewares/Third_Party/LwIP/src/core/ipv4/ip4_addr.c ****  *         representation of addr or NULL if buf was too small
 281:Middlewares/Third_Party/LwIP/src/core/ipv4/ip4_addr.c ****  */
 282:Middlewares/Third_Party/LwIP/src/core/ipv4/ip4_addr.c **** char *
 283:Middlewares/Third_Party/LwIP/src/core/ipv4/ip4_addr.c **** ip4addr_ntoa_r(const ip4_addr_t *addr, char *buf, int buflen)
 284:Middlewares/Third_Party/LwIP/src/core/ipv4/ip4_addr.c **** {
 648              		.loc 1 284 1 is_stmt 1 view -0
 649              		.cfi_startproc
 650              		@ args = 0, pretend = 0, frame = 8
 651              		@ frame_needed = 0, uses_anonymous_args = 0
ARM GAS  /tmp/cch5jEqQ.s 			page 19


 652              		.loc 1 284 1 is_stmt 0 view .LVU198
 653 0000 F0B5     		push	{r4, r5, r6, r7, lr}
 654              	.LCFI9:
 655              		.cfi_def_cfa_offset 20
 656              		.cfi_offset 4, -20
 657              		.cfi_offset 5, -16
 658              		.cfi_offset 6, -12
 659              		.cfi_offset 7, -8
 660              		.cfi_offset 14, -4
 661 0002 83B0     		sub	sp, sp, #12
 662              	.LCFI10:
 663              		.cfi_def_cfa_offset 32
 285:Middlewares/Third_Party/LwIP/src/core/ipv4/ip4_addr.c ****   u32_t s_addr;
 664              		.loc 1 285 3 is_stmt 1 view .LVU199
 286:Middlewares/Third_Party/LwIP/src/core/ipv4/ip4_addr.c ****   char inv[3];
 665              		.loc 1 286 3 view .LVU200
 287:Middlewares/Third_Party/LwIP/src/core/ipv4/ip4_addr.c ****   char *rp;
 666              		.loc 1 287 3 view .LVU201
 288:Middlewares/Third_Party/LwIP/src/core/ipv4/ip4_addr.c ****   u8_t *ap;
 667              		.loc 1 288 3 view .LVU202
 289:Middlewares/Third_Party/LwIP/src/core/ipv4/ip4_addr.c ****   u8_t rem;
 668              		.loc 1 289 3 view .LVU203
 290:Middlewares/Third_Party/LwIP/src/core/ipv4/ip4_addr.c ****   u8_t n;
 669              		.loc 1 290 3 view .LVU204
 291:Middlewares/Third_Party/LwIP/src/core/ipv4/ip4_addr.c ****   u8_t i;
 670              		.loc 1 291 3 view .LVU205
 292:Middlewares/Third_Party/LwIP/src/core/ipv4/ip4_addr.c ****   int len = 0;
 671              		.loc 1 292 3 view .LVU206
 672              	.LVL66:
 293:Middlewares/Third_Party/LwIP/src/core/ipv4/ip4_addr.c **** 
 294:Middlewares/Third_Party/LwIP/src/core/ipv4/ip4_addr.c ****   s_addr = ip4_addr_get_u32(addr);
 673              		.loc 1 294 3 view .LVU207
 674              		.loc 1 294 12 is_stmt 0 view .LVU208
 675 0004 0368     		ldr	r3, [r0]
 676              		.loc 1 294 10 view .LVU209
 677 0006 0193     		str	r3, [sp, #4]
 295:Middlewares/Third_Party/LwIP/src/core/ipv4/ip4_addr.c **** 
 296:Middlewares/Third_Party/LwIP/src/core/ipv4/ip4_addr.c ****   rp = buf;
 678              		.loc 1 296 3 is_stmt 1 view .LVU210
 679              	.LVL67:
 297:Middlewares/Third_Party/LwIP/src/core/ipv4/ip4_addr.c ****   ap = (u8_t *)&s_addr;
 680              		.loc 1 297 3 view .LVU211
 298:Middlewares/Third_Party/LwIP/src/core/ipv4/ip4_addr.c ****   for (n = 0; n < 4; n++) {
 681              		.loc 1 298 3 view .LVU212
 296:Middlewares/Third_Party/LwIP/src/core/ipv4/ip4_addr.c ****   ap = (u8_t *)&s_addr;
 682              		.loc 1 296 6 is_stmt 0 view .LVU213
 683 0008 8E46     		mov	lr, r1
 292:Middlewares/Third_Party/LwIP/src/core/ipv4/ip4_addr.c **** 
 684              		.loc 1 292 7 view .LVU214
 685 000a 0024     		movs	r4, #0
 686              		.loc 1 298 10 view .LVU215
 687 000c 2646     		mov	r6, r4
 297:Middlewares/Third_Party/LwIP/src/core/ipv4/ip4_addr.c ****   for (n = 0; n < 4; n++) {
 688              		.loc 1 297 6 view .LVU216
 689 000e 01AD     		add	r5, sp, #4
 690              	.LVL68:
 691              	.L62:
ARM GAS  /tmp/cch5jEqQ.s 			page 20


 692              		.loc 1 298 15 is_stmt 1 discriminator 1 view .LVU217
 693              		.loc 1 298 3 is_stmt 0 discriminator 1 view .LVU218
 694 0010 032E     		cmp	r6, #3
 695 0012 37D8     		bhi	.L71
 299:Middlewares/Third_Party/LwIP/src/core/ipv4/ip4_addr.c ****     i = 0;
 696              		.loc 1 299 7 view .LVU219
 697 0014 0020     		movs	r0, #0
 698              	.L63:
 699              	.LVL69:
 300:Middlewares/Third_Party/LwIP/src/core/ipv4/ip4_addr.c ****     do {
 700              		.loc 1 300 5 is_stmt 1 discriminator 1 view .LVU220
 301:Middlewares/Third_Party/LwIP/src/core/ipv4/ip4_addr.c ****       rem = *ap % (u8_t)10;
 701              		.loc 1 301 7 discriminator 1 view .LVU221
 702              		.loc 1 301 13 is_stmt 0 discriminator 1 view .LVU222
 703 0016 95F800C0 		ldrb	ip, [r5]	@ zero_extendqisi2
 704              		.loc 1 301 11 discriminator 1 view .LVU223
 705 001a 1E4B     		ldr	r3, .L74
 706 001c A3FB0C73 		umull	r7, r3, r3, ip
 707 0020 DB08     		lsrs	r3, r3, #3
 708 0022 03EB8307 		add	r7, r3, r3, lsl #2
 709 0026 ACEB470C 		sub	ip, ip, r7, lsl #1
 710 002a 5FFA8CFC 		uxtb	ip, ip
 711              	.LVL70:
 302:Middlewares/Third_Party/LwIP/src/core/ipv4/ip4_addr.c ****       *ap /= (u8_t)10;
 712              		.loc 1 302 7 is_stmt 1 discriminator 1 view .LVU224
 713              		.loc 1 302 11 is_stmt 0 discriminator 1 view .LVU225
 714 002e DBB2     		uxtb	r3, r3
 715 0030 2B70     		strb	r3, [r5]
 303:Middlewares/Third_Party/LwIP/src/core/ipv4/ip4_addr.c ****       inv[i++] = (char)('0' + rem);
 716              		.loc 1 303 7 is_stmt 1 discriminator 1 view .LVU226
 717 0032 0746     		mov	r7, r0
 718              		.loc 1 303 12 is_stmt 0 discriminator 1 view .LVU227
 719 0034 0130     		adds	r0, r0, #1
 720              	.LVL71:
 721              		.loc 1 303 12 discriminator 1 view .LVU228
 722 0036 C0B2     		uxtb	r0, r0
 723              	.LVL72:
 724              		.loc 1 303 18 discriminator 1 view .LVU229
 725 0038 0CF1300C 		add	ip, ip, #48
 726              	.LVL73:
 727              		.loc 1 303 16 discriminator 1 view .LVU230
 728 003c 0837     		adds	r7, r7, #8
 729 003e 6F44     		add	r7, sp, r7
 730 0040 07F808CC 		strb	ip, [r7, #-8]
 304:Middlewares/Third_Party/LwIP/src/core/ipv4/ip4_addr.c ****     } while (*ap);
 731              		.loc 1 304 13 is_stmt 1 discriminator 1 view .LVU231
 732              		.loc 1 304 5 is_stmt 0 discriminator 1 view .LVU232
 733 0044 002B     		cmp	r3, #0
 734 0046 E6D1     		bne	.L63
 735 0048 08E0     		b	.L64
 736              	.LVL74:
 737              	.L73:
 305:Middlewares/Third_Party/LwIP/src/core/ipv4/ip4_addr.c ****     while (i--) {
 306:Middlewares/Third_Party/LwIP/src/core/ipv4/ip4_addr.c ****       if (len++ >= buflen) {
 307:Middlewares/Third_Party/LwIP/src/core/ipv4/ip4_addr.c ****         return NULL;
 308:Middlewares/Third_Party/LwIP/src/core/ipv4/ip4_addr.c ****       }
 309:Middlewares/Third_Party/LwIP/src/core/ipv4/ip4_addr.c ****       *rp++ = inv[i];
ARM GAS  /tmp/cch5jEqQ.s 			page 21


 738              		.loc 1 309 7 is_stmt 1 view .LVU233
 739              		.loc 1 309 18 is_stmt 0 view .LVU234
 740 004a 03F10804 		add	r4, r3, #8
 741 004e 6C44     		add	r4, sp, r4
 742 0050 14F8084C 		ldrb	r4, [r4, #-8]	@ zero_extendqisi2
 743              		.loc 1 309 13 view .LVU235
 744 0054 0EF8014B 		strb	r4, [lr], #1
 745              	.LVL75:
 306:Middlewares/Third_Party/LwIP/src/core/ipv4/ip4_addr.c ****         return NULL;
 746              		.loc 1 306 14 view .LVU236
 747 0058 0446     		mov	r4, r0
 305:Middlewares/Third_Party/LwIP/src/core/ipv4/ip4_addr.c ****     while (i--) {
 748              		.loc 1 305 13 view .LVU237
 749 005a 1846     		mov	r0, r3
 750              	.LVL76:
 751              	.L64:
 305:Middlewares/Third_Party/LwIP/src/core/ipv4/ip4_addr.c ****     while (i--) {
 752              		.loc 1 305 11 is_stmt 1 view .LVU238
 305:Middlewares/Third_Party/LwIP/src/core/ipv4/ip4_addr.c ****     while (i--) {
 753              		.loc 1 305 13 is_stmt 0 view .LVU239
 754 005c 431E     		subs	r3, r0, #1
 755 005e DBB2     		uxtb	r3, r3
 756              	.LVL77:
 305:Middlewares/Third_Party/LwIP/src/core/ipv4/ip4_addr.c ****     while (i--) {
 757              		.loc 1 305 11 view .LVU240
 758 0060 28B1     		cbz	r0, .L72
 306:Middlewares/Third_Party/LwIP/src/core/ipv4/ip4_addr.c ****         return NULL;
 759              		.loc 1 306 7 is_stmt 1 view .LVU241
 306:Middlewares/Third_Party/LwIP/src/core/ipv4/ip4_addr.c ****         return NULL;
 760              		.loc 1 306 14 is_stmt 0 view .LVU242
 761 0062 601C     		adds	r0, r4, #1
 762              	.LVL78:
 306:Middlewares/Third_Party/LwIP/src/core/ipv4/ip4_addr.c ****         return NULL;
 763              		.loc 1 306 10 view .LVU243
 764 0064 9442     		cmp	r4, r2
 765 0066 F0DB     		blt	.L73
 307:Middlewares/Third_Party/LwIP/src/core/ipv4/ip4_addr.c ****       }
 766              		.loc 1 307 16 view .LVU244
 767 0068 0020     		movs	r0, #0
 768              	.LVL79:
 769              	.L61:
 310:Middlewares/Third_Party/LwIP/src/core/ipv4/ip4_addr.c ****     }
 311:Middlewares/Third_Party/LwIP/src/core/ipv4/ip4_addr.c ****     if (len++ >= buflen) {
 312:Middlewares/Third_Party/LwIP/src/core/ipv4/ip4_addr.c ****       return NULL;
 313:Middlewares/Third_Party/LwIP/src/core/ipv4/ip4_addr.c ****     }
 314:Middlewares/Third_Party/LwIP/src/core/ipv4/ip4_addr.c ****     *rp++ = '.';
 315:Middlewares/Third_Party/LwIP/src/core/ipv4/ip4_addr.c ****     ap++;
 316:Middlewares/Third_Party/LwIP/src/core/ipv4/ip4_addr.c ****   }
 317:Middlewares/Third_Party/LwIP/src/core/ipv4/ip4_addr.c ****   *--rp = 0;
 318:Middlewares/Third_Party/LwIP/src/core/ipv4/ip4_addr.c ****   return buf;
 319:Middlewares/Third_Party/LwIP/src/core/ipv4/ip4_addr.c **** }
 770              		.loc 1 319 1 view .LVU245
 771 006a 03B0     		add	sp, sp, #12
 772              	.LCFI11:
 773              		.cfi_remember_state
 774              		.cfi_def_cfa_offset 20
 775              		@ sp needed
ARM GAS  /tmp/cch5jEqQ.s 			page 22


 776 006c F0BD     		pop	{r4, r5, r6, r7, pc}
 777              	.LVL80:
 778              	.L72:
 779              	.LCFI12:
 780              		.cfi_restore_state
 311:Middlewares/Third_Party/LwIP/src/core/ipv4/ip4_addr.c ****       return NULL;
 781              		.loc 1 311 5 is_stmt 1 view .LVU246
 311:Middlewares/Third_Party/LwIP/src/core/ipv4/ip4_addr.c ****       return NULL;
 782              		.loc 1 311 12 is_stmt 0 view .LVU247
 783 006e 631C     		adds	r3, r4, #1
 784              	.LVL81:
 311:Middlewares/Third_Party/LwIP/src/core/ipv4/ip4_addr.c ****       return NULL;
 785              		.loc 1 311 8 view .LVU248
 786 0070 9442     		cmp	r4, r2
 787 0072 0CDA     		bge	.L68
 314:Middlewares/Third_Party/LwIP/src/core/ipv4/ip4_addr.c ****     ap++;
 788              		.loc 1 314 5 is_stmt 1 discriminator 2 view .LVU249
 789              	.LVL82:
 314:Middlewares/Third_Party/LwIP/src/core/ipv4/ip4_addr.c ****     ap++;
 790              		.loc 1 314 11 is_stmt 0 discriminator 2 view .LVU250
 791 0074 2E20     		movs	r0, #46
 792              	.LVL83:
 314:Middlewares/Third_Party/LwIP/src/core/ipv4/ip4_addr.c ****     ap++;
 793              		.loc 1 314 11 discriminator 2 view .LVU251
 794 0076 0EF8010B 		strb	r0, [lr], #1
 795              	.LVL84:
 315:Middlewares/Third_Party/LwIP/src/core/ipv4/ip4_addr.c ****   }
 796              		.loc 1 315 5 is_stmt 1 discriminator 2 view .LVU252
 315:Middlewares/Third_Party/LwIP/src/core/ipv4/ip4_addr.c ****   }
 797              		.loc 1 315 7 is_stmt 0 discriminator 2 view .LVU253
 798 007a 0135     		adds	r5, r5, #1
 799              	.LVL85:
 298:Middlewares/Third_Party/LwIP/src/core/ipv4/ip4_addr.c ****     i = 0;
 800              		.loc 1 298 22 is_stmt 1 discriminator 2 view .LVU254
 298:Middlewares/Third_Party/LwIP/src/core/ipv4/ip4_addr.c ****     i = 0;
 801              		.loc 1 298 23 is_stmt 0 discriminator 2 view .LVU255
 802 007c 0136     		adds	r6, r6, #1
 803              	.LVL86:
 298:Middlewares/Third_Party/LwIP/src/core/ipv4/ip4_addr.c ****     i = 0;
 804              		.loc 1 298 23 discriminator 2 view .LVU256
 805 007e F6B2     		uxtb	r6, r6
 806              	.LVL87:
 311:Middlewares/Third_Party/LwIP/src/core/ipv4/ip4_addr.c ****       return NULL;
 807              		.loc 1 311 12 discriminator 2 view .LVU257
 808 0080 1C46     		mov	r4, r3
 809 0082 C5E7     		b	.L62
 810              	.LVL88:
 811              	.L71:
 317:Middlewares/Third_Party/LwIP/src/core/ipv4/ip4_addr.c ****   return buf;
 812              		.loc 1 317 3 is_stmt 1 view .LVU258
 317:Middlewares/Third_Party/LwIP/src/core/ipv4/ip4_addr.c ****   return buf;
 813              		.loc 1 317 9 is_stmt 0 view .LVU259
 814 0084 0023     		movs	r3, #0
 815 0086 0EF8013C 		strb	r3, [lr, #-1]
 318:Middlewares/Third_Party/LwIP/src/core/ipv4/ip4_addr.c **** }
 816              		.loc 1 318 3 is_stmt 1 view .LVU260
 318:Middlewares/Third_Party/LwIP/src/core/ipv4/ip4_addr.c **** }
ARM GAS  /tmp/cch5jEqQ.s 			page 23


 817              		.loc 1 318 10 is_stmt 0 view .LVU261
 818 008a 0846     		mov	r0, r1
 819 008c EDE7     		b	.L61
 820              	.LVL89:
 821              	.L68:
 312:Middlewares/Third_Party/LwIP/src/core/ipv4/ip4_addr.c ****     }
 822              		.loc 1 312 14 view .LVU262
 823 008e 0020     		movs	r0, #0
 824              	.LVL90:
 312:Middlewares/Third_Party/LwIP/src/core/ipv4/ip4_addr.c ****     }
 825              		.loc 1 312 14 view .LVU263
 826 0090 EBE7     		b	.L61
 827              	.L75:
 828 0092 00BF     		.align	2
 829              	.L74:
 830 0094 CDCCCCCC 		.word	-858993459
 831              		.cfi_endproc
 832              	.LFE172:
 834              		.section	.text.ip4addr_ntoa,"ax",%progbits
 835              		.align	1
 836              		.global	ip4addr_ntoa
 837              		.syntax unified
 838              		.thumb
 839              		.thumb_func
 841              	ip4addr_ntoa:
 842              	.LVL91:
 843              	.LFB171:
 268:Middlewares/Third_Party/LwIP/src/core/ipv4/ip4_addr.c ****   static char str[IP4ADDR_STRLEN_MAX];
 844              		.loc 1 268 1 is_stmt 1 view -0
 845              		.cfi_startproc
 846              		@ args = 0, pretend = 0, frame = 0
 847              		@ frame_needed = 0, uses_anonymous_args = 0
 268:Middlewares/Third_Party/LwIP/src/core/ipv4/ip4_addr.c ****   static char str[IP4ADDR_STRLEN_MAX];
 848              		.loc 1 268 1 is_stmt 0 view .LVU265
 849 0000 08B5     		push	{r3, lr}
 850              	.LCFI13:
 851              		.cfi_def_cfa_offset 8
 852              		.cfi_offset 3, -8
 853              		.cfi_offset 14, -4
 269:Middlewares/Third_Party/LwIP/src/core/ipv4/ip4_addr.c ****   return ip4addr_ntoa_r(addr, str, IP4ADDR_STRLEN_MAX);
 854              		.loc 1 269 3 is_stmt 1 view .LVU266
 270:Middlewares/Third_Party/LwIP/src/core/ipv4/ip4_addr.c **** }
 855              		.loc 1 270 3 view .LVU267
 270:Middlewares/Third_Party/LwIP/src/core/ipv4/ip4_addr.c **** }
 856              		.loc 1 270 10 is_stmt 0 view .LVU268
 857 0002 1022     		movs	r2, #16
 858 0004 0149     		ldr	r1, .L78
 859 0006 FFF7FEFF 		bl	ip4addr_ntoa_r
 860              	.LVL92:
 271:Middlewares/Third_Party/LwIP/src/core/ipv4/ip4_addr.c **** 
 861              		.loc 1 271 1 view .LVU269
 862 000a 08BD     		pop	{r3, pc}
 863              	.L79:
 864              		.align	2
 865              	.L78:
 866 000c 00000000 		.word	.LANCHOR0
 867              		.cfi_endproc
ARM GAS  /tmp/cch5jEqQ.s 			page 24


 868              	.LFE171:
 870              		.global	ip_addr_broadcast
 871              		.global	ip_addr_any
 872              		.section	.bss.str.0,"aw",%nobits
 873              		.align	2
 874              		.set	.LANCHOR0,. + 0
 877              	str.0:
 878 0000 00000000 		.space	16
 878      00000000 
 878      00000000 
 878      00000000 
 879              		.section	.rodata.ip_addr_any,"a"
 880              		.align	2
 883              	ip_addr_any:
 884 0000 00000000 		.space	4
 885              		.section	.rodata.ip_addr_broadcast,"a"
 886              		.align	2
 889              	ip_addr_broadcast:
 890 0000 FFFFFFFF 		.word	-1
 891              		.text
 892              	.Letext0:
 893              		.file 2 "/usr/share/gcc-arm-none-eabi-10.3-2021.10/arm-none-eabi/include/machine/_default_types.h"
 894              		.file 3 "/usr/share/gcc-arm-none-eabi-10.3-2021.10/arm-none-eabi/include/sys/_stdint.h"
 895              		.file 4 "Middlewares/Third_Party/LwIP/src/include/lwip/arch.h"
 896              		.file 5 "Middlewares/Third_Party/LwIP/src/include/lwip/ip4_addr.h"
 897              		.file 6 "Middlewares/Third_Party/LwIP/src/include/lwip/ip_addr.h"
 898              		.file 7 "/usr/share/gcc-arm-none-eabi-10.3-2021.10/arm-none-eabi/include/ctype.h"
 899              		.file 8 "Middlewares/Third_Party/LwIP/src/include/lwip/err.h"
 900              		.file 9 "Middlewares/Third_Party/LwIP/src/include/lwip/pbuf.h"
 901              		.file 10 "Middlewares/Third_Party/LwIP/src/include/lwip/netif.h"
 902              		.file 11 "Middlewares/Third_Party/LwIP/src/include/lwip/def.h"
 903              		.file 12 "/usr/share/gcc-arm-none-eabi-10.3-2021.10/arm-none-eabi/include/stdio.h"
 904              		.file 13 "Middlewares/Third_Party/LwIP/src/include/lwip/memp.h"
ARM GAS  /tmp/cch5jEqQ.s 			page 25

