ARM GAS  /tmp/ccguVT0k.s 			page 1


   1              		.cpu cortex-m7
   2              		.arch armv7e-m
   3              		.fpu fpv5-sp-d16
   4              		.eabi_attribute 27, 1
   5              		.eabi_attribute 28, 1
   6              		.eabi_attribute 20, 1
   7              		.eabi_attribute 21, 1
   8              		.eabi_attribute 23, 3
   9              		.eabi_attribute 24, 1
  10              		.eabi_attribute 25, 1
  11              		.eabi_attribute 26, 1
  12              		.eabi_attribute 30, 1
  13              		.eabi_attribute 34, 1
  14              		.eabi_attribute 18, 4
  15              		.file	"timeouts.c"
  16              		.text
  17              	.Ltext0:
  18              		.cfi_sections	.debug_frame
  19              		.section	.rodata.sys_timeout_abs.str1.4,"aMS",%progbits,1
  20              		.align	2
  21              	.LC0:
  22 0000 4D696464 		.ascii	"Middlewares/Third_Party/LwIP/src/core/timeouts.c\000"
  22      6C657761 
  22      7265732F 
  22      54686972 
  22      645F5061 
  23 0031 000000   		.align	2
  24              	.LC1:
  25 0034 7379735F 		.ascii	"sys_timeout: timeout != NULL, pool MEMP_SYS_TIMEOUT"
  25      74696D65 
  25      6F75743A 
  25      2074696D 
  25      656F7574 
  26 0067 20697320 		.ascii	" is empty\000"
  26      656D7074 
  26      7900
  27 0071 000000   		.align	2
  28              	.LC2:
  29 0074 41737365 		.ascii	"Assertion \"%s\" failed at line %d in %s\012\000"
  29      7274696F 
  29      6E202225 
  29      73222066 
  29      61696C65 
  30              		.section	.text.sys_timeout_abs,"ax",%progbits
  31              		.align	1
  32              		.syntax unified
  33              		.thumb
  34              		.thumb_func
  36              	sys_timeout_abs:
  37              	.LVL0:
  38              	.LFB169:
  39              		.file 1 "Middlewares/Third_Party/LwIP/src/core/timeouts.c"
   1:Middlewares/Third_Party/LwIP/src/core/timeouts.c **** /**
   2:Middlewares/Third_Party/LwIP/src/core/timeouts.c ****  * @file
   3:Middlewares/Third_Party/LwIP/src/core/timeouts.c ****  * Stack-internal timers implementation.
   4:Middlewares/Third_Party/LwIP/src/core/timeouts.c ****  * This file includes timer callbacks for stack-internal timers as well as
   5:Middlewares/Third_Party/LwIP/src/core/timeouts.c ****  * functions to set up or stop timers and check for expired timers.
ARM GAS  /tmp/ccguVT0k.s 			page 2


   6:Middlewares/Third_Party/LwIP/src/core/timeouts.c ****  *
   7:Middlewares/Third_Party/LwIP/src/core/timeouts.c ****  */
   8:Middlewares/Third_Party/LwIP/src/core/timeouts.c **** 
   9:Middlewares/Third_Party/LwIP/src/core/timeouts.c **** /*
  10:Middlewares/Third_Party/LwIP/src/core/timeouts.c ****  * Copyright (c) 2001-2004 Swedish Institute of Computer Science.
  11:Middlewares/Third_Party/LwIP/src/core/timeouts.c ****  * All rights reserved.
  12:Middlewares/Third_Party/LwIP/src/core/timeouts.c ****  *
  13:Middlewares/Third_Party/LwIP/src/core/timeouts.c ****  * Redistribution and use in source and binary forms, with or without modification,
  14:Middlewares/Third_Party/LwIP/src/core/timeouts.c ****  * are permitted provided that the following conditions are met:
  15:Middlewares/Third_Party/LwIP/src/core/timeouts.c ****  *
  16:Middlewares/Third_Party/LwIP/src/core/timeouts.c ****  * 1. Redistributions of source code must retain the above copyright notice,
  17:Middlewares/Third_Party/LwIP/src/core/timeouts.c ****  *    this list of conditions and the following disclaimer.
  18:Middlewares/Third_Party/LwIP/src/core/timeouts.c ****  * 2. Redistributions in binary form must reproduce the above copyright notice,
  19:Middlewares/Third_Party/LwIP/src/core/timeouts.c ****  *    this list of conditions and the following disclaimer in the documentation
  20:Middlewares/Third_Party/LwIP/src/core/timeouts.c ****  *    and/or other materials provided with the distribution.
  21:Middlewares/Third_Party/LwIP/src/core/timeouts.c ****  * 3. The name of the author may not be used to endorse or promote products
  22:Middlewares/Third_Party/LwIP/src/core/timeouts.c ****  *    derived from this software without specific prior written permission.
  23:Middlewares/Third_Party/LwIP/src/core/timeouts.c ****  *
  24:Middlewares/Third_Party/LwIP/src/core/timeouts.c ****  * THIS SOFTWARE IS PROVIDED BY THE AUTHOR ``AS IS'' AND ANY EXPRESS OR IMPLIED
  25:Middlewares/Third_Party/LwIP/src/core/timeouts.c ****  * WARRANTIES, INCLUDING, BUT NOT LIMITED TO, THE IMPLIED WARRANTIES OF
  26:Middlewares/Third_Party/LwIP/src/core/timeouts.c ****  * MERCHANTABILITY AND FITNESS FOR A PARTICULAR PURPOSE ARE DISCLAIMED. IN NO EVENT
  27:Middlewares/Third_Party/LwIP/src/core/timeouts.c ****  * SHALL THE AUTHOR BE LIABLE FOR ANY DIRECT, INDIRECT, INCIDENTAL, SPECIAL,
  28:Middlewares/Third_Party/LwIP/src/core/timeouts.c ****  * EXEMPLARY, OR CONSEQUENTIAL DAMAGES (INCLUDING, BUT NOT LIMITED TO, PROCUREMENT
  29:Middlewares/Third_Party/LwIP/src/core/timeouts.c ****  * OF SUBSTITUTE GOODS OR SERVICES; LOSS OF USE, DATA, OR PROFITS; OR BUSINESS
  30:Middlewares/Third_Party/LwIP/src/core/timeouts.c ****  * INTERRUPTION) HOWEVER CAUSED AND ON ANY THEORY OF LIABILITY, WHETHER IN
  31:Middlewares/Third_Party/LwIP/src/core/timeouts.c ****  * CONTRACT, STRICT LIABILITY, OR TORT (INCLUDING NEGLIGENCE OR OTHERWISE) ARISING
  32:Middlewares/Third_Party/LwIP/src/core/timeouts.c ****  * IN ANY WAY OUT OF THE USE OF THIS SOFTWARE, EVEN IF ADVISED OF THE POSSIBILITY
  33:Middlewares/Third_Party/LwIP/src/core/timeouts.c ****  * OF SUCH DAMAGE.
  34:Middlewares/Third_Party/LwIP/src/core/timeouts.c ****  *
  35:Middlewares/Third_Party/LwIP/src/core/timeouts.c ****  * This file is part of the lwIP TCP/IP stack.
  36:Middlewares/Third_Party/LwIP/src/core/timeouts.c ****  *
  37:Middlewares/Third_Party/LwIP/src/core/timeouts.c ****  * Author: Adam Dunkels <adam@sics.se>
  38:Middlewares/Third_Party/LwIP/src/core/timeouts.c ****  *         Simon Goldschmidt
  39:Middlewares/Third_Party/LwIP/src/core/timeouts.c ****  *
  40:Middlewares/Third_Party/LwIP/src/core/timeouts.c ****  */
  41:Middlewares/Third_Party/LwIP/src/core/timeouts.c **** 
  42:Middlewares/Third_Party/LwIP/src/core/timeouts.c **** #include "lwip/opt.h"
  43:Middlewares/Third_Party/LwIP/src/core/timeouts.c **** 
  44:Middlewares/Third_Party/LwIP/src/core/timeouts.c **** #include "lwip/timeouts.h"
  45:Middlewares/Third_Party/LwIP/src/core/timeouts.c **** #include "lwip/priv/tcp_priv.h"
  46:Middlewares/Third_Party/LwIP/src/core/timeouts.c **** 
  47:Middlewares/Third_Party/LwIP/src/core/timeouts.c **** #include "lwip/def.h"
  48:Middlewares/Third_Party/LwIP/src/core/timeouts.c **** #include "lwip/memp.h"
  49:Middlewares/Third_Party/LwIP/src/core/timeouts.c **** #include "lwip/priv/tcpip_priv.h"
  50:Middlewares/Third_Party/LwIP/src/core/timeouts.c **** 
  51:Middlewares/Third_Party/LwIP/src/core/timeouts.c **** #include "lwip/ip4_frag.h"
  52:Middlewares/Third_Party/LwIP/src/core/timeouts.c **** #include "lwip/etharp.h"
  53:Middlewares/Third_Party/LwIP/src/core/timeouts.c **** #include "lwip/dhcp.h"
  54:Middlewares/Third_Party/LwIP/src/core/timeouts.c **** #include "lwip/autoip.h"
  55:Middlewares/Third_Party/LwIP/src/core/timeouts.c **** #include "lwip/igmp.h"
  56:Middlewares/Third_Party/LwIP/src/core/timeouts.c **** #include "lwip/dns.h"
  57:Middlewares/Third_Party/LwIP/src/core/timeouts.c **** #include "lwip/nd6.h"
  58:Middlewares/Third_Party/LwIP/src/core/timeouts.c **** #include "lwip/ip6_frag.h"
  59:Middlewares/Third_Party/LwIP/src/core/timeouts.c **** #include "lwip/mld6.h"
  60:Middlewares/Third_Party/LwIP/src/core/timeouts.c **** #include "lwip/dhcp6.h"
  61:Middlewares/Third_Party/LwIP/src/core/timeouts.c **** #include "lwip/sys.h"
  62:Middlewares/Third_Party/LwIP/src/core/timeouts.c **** #include "lwip/pbuf.h"
ARM GAS  /tmp/ccguVT0k.s 			page 3


  63:Middlewares/Third_Party/LwIP/src/core/timeouts.c **** 
  64:Middlewares/Third_Party/LwIP/src/core/timeouts.c **** #if LWIP_DEBUG_TIMERNAMES
  65:Middlewares/Third_Party/LwIP/src/core/timeouts.c **** #define HANDLER(x) x, #x
  66:Middlewares/Third_Party/LwIP/src/core/timeouts.c **** #else /* LWIP_DEBUG_TIMERNAMES */
  67:Middlewares/Third_Party/LwIP/src/core/timeouts.c **** #define HANDLER(x) x
  68:Middlewares/Third_Party/LwIP/src/core/timeouts.c **** #endif /* LWIP_DEBUG_TIMERNAMES */
  69:Middlewares/Third_Party/LwIP/src/core/timeouts.c **** 
  70:Middlewares/Third_Party/LwIP/src/core/timeouts.c **** #define LWIP_MAX_TIMEOUT  0x7fffffff
  71:Middlewares/Third_Party/LwIP/src/core/timeouts.c **** 
  72:Middlewares/Third_Party/LwIP/src/core/timeouts.c **** /* Check if timer's expiry time is greater than time and care about u32_t wraparounds */
  73:Middlewares/Third_Party/LwIP/src/core/timeouts.c **** #define TIME_LESS_THAN(t, compare_to) ( (((u32_t)((t)-(compare_to))) > LWIP_MAX_TIMEOUT) ? 1 : 0 )
  74:Middlewares/Third_Party/LwIP/src/core/timeouts.c **** 
  75:Middlewares/Third_Party/LwIP/src/core/timeouts.c **** /** This array contains all stack-internal cyclic timers. To get the number of
  76:Middlewares/Third_Party/LwIP/src/core/timeouts.c ****  * timers, use LWIP_ARRAYSIZE() */
  77:Middlewares/Third_Party/LwIP/src/core/timeouts.c **** const struct lwip_cyclic_timer lwip_cyclic_timers[] = {
  78:Middlewares/Third_Party/LwIP/src/core/timeouts.c **** #if LWIP_TCP
  79:Middlewares/Third_Party/LwIP/src/core/timeouts.c ****   /* The TCP timer is a special case: it does not have to run always and
  80:Middlewares/Third_Party/LwIP/src/core/timeouts.c ****      is triggered to start from TCP using tcp_timer_needed() */
  81:Middlewares/Third_Party/LwIP/src/core/timeouts.c ****   {TCP_TMR_INTERVAL, HANDLER(tcp_tmr)},
  82:Middlewares/Third_Party/LwIP/src/core/timeouts.c **** #endif /* LWIP_TCP */
  83:Middlewares/Third_Party/LwIP/src/core/timeouts.c **** #if LWIP_IPV4
  84:Middlewares/Third_Party/LwIP/src/core/timeouts.c **** #if IP_REASSEMBLY
  85:Middlewares/Third_Party/LwIP/src/core/timeouts.c ****   {IP_TMR_INTERVAL, HANDLER(ip_reass_tmr)},
  86:Middlewares/Third_Party/LwIP/src/core/timeouts.c **** #endif /* IP_REASSEMBLY */
  87:Middlewares/Third_Party/LwIP/src/core/timeouts.c **** #if LWIP_ARP
  88:Middlewares/Third_Party/LwIP/src/core/timeouts.c ****   {ARP_TMR_INTERVAL, HANDLER(etharp_tmr)},
  89:Middlewares/Third_Party/LwIP/src/core/timeouts.c **** #endif /* LWIP_ARP */
  90:Middlewares/Third_Party/LwIP/src/core/timeouts.c **** #if LWIP_DHCP
  91:Middlewares/Third_Party/LwIP/src/core/timeouts.c ****   {DHCP_COARSE_TIMER_MSECS, HANDLER(dhcp_coarse_tmr)},
  92:Middlewares/Third_Party/LwIP/src/core/timeouts.c ****   {DHCP_FINE_TIMER_MSECS, HANDLER(dhcp_fine_tmr)},
  93:Middlewares/Third_Party/LwIP/src/core/timeouts.c **** #endif /* LWIP_DHCP */
  94:Middlewares/Third_Party/LwIP/src/core/timeouts.c **** #if LWIP_AUTOIP
  95:Middlewares/Third_Party/LwIP/src/core/timeouts.c ****   {AUTOIP_TMR_INTERVAL, HANDLER(autoip_tmr)},
  96:Middlewares/Third_Party/LwIP/src/core/timeouts.c **** #endif /* LWIP_AUTOIP */
  97:Middlewares/Third_Party/LwIP/src/core/timeouts.c **** #if LWIP_IGMP
  98:Middlewares/Third_Party/LwIP/src/core/timeouts.c ****   {IGMP_TMR_INTERVAL, HANDLER(igmp_tmr)},
  99:Middlewares/Third_Party/LwIP/src/core/timeouts.c **** #endif /* LWIP_IGMP */
 100:Middlewares/Third_Party/LwIP/src/core/timeouts.c **** #endif /* LWIP_IPV4 */
 101:Middlewares/Third_Party/LwIP/src/core/timeouts.c **** #if LWIP_DNS
 102:Middlewares/Third_Party/LwIP/src/core/timeouts.c ****   {DNS_TMR_INTERVAL, HANDLER(dns_tmr)},
 103:Middlewares/Third_Party/LwIP/src/core/timeouts.c **** #endif /* LWIP_DNS */
 104:Middlewares/Third_Party/LwIP/src/core/timeouts.c **** #if LWIP_IPV6
 105:Middlewares/Third_Party/LwIP/src/core/timeouts.c ****   {ND6_TMR_INTERVAL, HANDLER(nd6_tmr)},
 106:Middlewares/Third_Party/LwIP/src/core/timeouts.c **** #if LWIP_IPV6_REASS
 107:Middlewares/Third_Party/LwIP/src/core/timeouts.c ****   {IP6_REASS_TMR_INTERVAL, HANDLER(ip6_reass_tmr)},
 108:Middlewares/Third_Party/LwIP/src/core/timeouts.c **** #endif /* LWIP_IPV6_REASS */
 109:Middlewares/Third_Party/LwIP/src/core/timeouts.c **** #if LWIP_IPV6_MLD
 110:Middlewares/Third_Party/LwIP/src/core/timeouts.c ****   {MLD6_TMR_INTERVAL, HANDLER(mld6_tmr)},
 111:Middlewares/Third_Party/LwIP/src/core/timeouts.c **** #endif /* LWIP_IPV6_MLD */
 112:Middlewares/Third_Party/LwIP/src/core/timeouts.c **** #if LWIP_IPV6_DHCP6
 113:Middlewares/Third_Party/LwIP/src/core/timeouts.c ****   {DHCP6_TIMER_MSECS, HANDLER(dhcp6_tmr)},
 114:Middlewares/Third_Party/LwIP/src/core/timeouts.c **** #endif /* LWIP_IPV6_DHCP6 */
 115:Middlewares/Third_Party/LwIP/src/core/timeouts.c **** #endif /* LWIP_IPV6 */
 116:Middlewares/Third_Party/LwIP/src/core/timeouts.c **** };
 117:Middlewares/Third_Party/LwIP/src/core/timeouts.c **** const int lwip_num_cyclic_timers = LWIP_ARRAYSIZE(lwip_cyclic_timers);
 118:Middlewares/Third_Party/LwIP/src/core/timeouts.c **** 
 119:Middlewares/Third_Party/LwIP/src/core/timeouts.c **** #if LWIP_TIMERS && !LWIP_TIMERS_CUSTOM
ARM GAS  /tmp/ccguVT0k.s 			page 4


 120:Middlewares/Third_Party/LwIP/src/core/timeouts.c **** 
 121:Middlewares/Third_Party/LwIP/src/core/timeouts.c **** /** The one and only timeout list */
 122:Middlewares/Third_Party/LwIP/src/core/timeouts.c **** static struct sys_timeo *next_timeout;
 123:Middlewares/Third_Party/LwIP/src/core/timeouts.c **** 
 124:Middlewares/Third_Party/LwIP/src/core/timeouts.c **** static u32_t current_timeout_due_time;
 125:Middlewares/Third_Party/LwIP/src/core/timeouts.c **** 
 126:Middlewares/Third_Party/LwIP/src/core/timeouts.c **** #if LWIP_TESTMODE
 127:Middlewares/Third_Party/LwIP/src/core/timeouts.c **** struct sys_timeo**
 128:Middlewares/Third_Party/LwIP/src/core/timeouts.c **** sys_timeouts_get_next_timeout(void)
 129:Middlewares/Third_Party/LwIP/src/core/timeouts.c **** {
 130:Middlewares/Third_Party/LwIP/src/core/timeouts.c ****   return &next_timeout;
 131:Middlewares/Third_Party/LwIP/src/core/timeouts.c **** }
 132:Middlewares/Third_Party/LwIP/src/core/timeouts.c **** #endif
 133:Middlewares/Third_Party/LwIP/src/core/timeouts.c **** 
 134:Middlewares/Third_Party/LwIP/src/core/timeouts.c **** #if LWIP_TCP
 135:Middlewares/Third_Party/LwIP/src/core/timeouts.c **** /** global variable that shows if the tcp timer is currently scheduled or not */
 136:Middlewares/Third_Party/LwIP/src/core/timeouts.c **** static int tcpip_tcp_timer_active;
 137:Middlewares/Third_Party/LwIP/src/core/timeouts.c **** 
 138:Middlewares/Third_Party/LwIP/src/core/timeouts.c **** /**
 139:Middlewares/Third_Party/LwIP/src/core/timeouts.c ****  * Timer callback function that calls tcp_tmr() and reschedules itself.
 140:Middlewares/Third_Party/LwIP/src/core/timeouts.c ****  *
 141:Middlewares/Third_Party/LwIP/src/core/timeouts.c ****  * @param arg unused argument
 142:Middlewares/Third_Party/LwIP/src/core/timeouts.c ****  */
 143:Middlewares/Third_Party/LwIP/src/core/timeouts.c **** static void
 144:Middlewares/Third_Party/LwIP/src/core/timeouts.c **** tcpip_tcp_timer(void *arg)
 145:Middlewares/Third_Party/LwIP/src/core/timeouts.c **** {
 146:Middlewares/Third_Party/LwIP/src/core/timeouts.c ****   LWIP_UNUSED_ARG(arg);
 147:Middlewares/Third_Party/LwIP/src/core/timeouts.c **** 
 148:Middlewares/Third_Party/LwIP/src/core/timeouts.c ****   /* call TCP timer handler */
 149:Middlewares/Third_Party/LwIP/src/core/timeouts.c ****   tcp_tmr();
 150:Middlewares/Third_Party/LwIP/src/core/timeouts.c ****   /* timer still needed? */
 151:Middlewares/Third_Party/LwIP/src/core/timeouts.c ****   if (tcp_active_pcbs || tcp_tw_pcbs) {
 152:Middlewares/Third_Party/LwIP/src/core/timeouts.c ****     /* restart timer */
 153:Middlewares/Third_Party/LwIP/src/core/timeouts.c ****     sys_timeout(TCP_TMR_INTERVAL, tcpip_tcp_timer, NULL);
 154:Middlewares/Third_Party/LwIP/src/core/timeouts.c ****   } else {
 155:Middlewares/Third_Party/LwIP/src/core/timeouts.c ****     /* disable timer */
 156:Middlewares/Third_Party/LwIP/src/core/timeouts.c ****     tcpip_tcp_timer_active = 0;
 157:Middlewares/Third_Party/LwIP/src/core/timeouts.c ****   }
 158:Middlewares/Third_Party/LwIP/src/core/timeouts.c **** }
 159:Middlewares/Third_Party/LwIP/src/core/timeouts.c **** 
 160:Middlewares/Third_Party/LwIP/src/core/timeouts.c **** /**
 161:Middlewares/Third_Party/LwIP/src/core/timeouts.c ****  * Called from TCP_REG when registering a new PCB:
 162:Middlewares/Third_Party/LwIP/src/core/timeouts.c ****  * the reason is to have the TCP timer only running when
 163:Middlewares/Third_Party/LwIP/src/core/timeouts.c ****  * there are active (or time-wait) PCBs.
 164:Middlewares/Third_Party/LwIP/src/core/timeouts.c ****  */
 165:Middlewares/Third_Party/LwIP/src/core/timeouts.c **** void
 166:Middlewares/Third_Party/LwIP/src/core/timeouts.c **** tcp_timer_needed(void)
 167:Middlewares/Third_Party/LwIP/src/core/timeouts.c **** {
 168:Middlewares/Third_Party/LwIP/src/core/timeouts.c ****   LWIP_ASSERT_CORE_LOCKED();
 169:Middlewares/Third_Party/LwIP/src/core/timeouts.c **** 
 170:Middlewares/Third_Party/LwIP/src/core/timeouts.c ****   /* timer is off but needed again? */
 171:Middlewares/Third_Party/LwIP/src/core/timeouts.c ****   if (!tcpip_tcp_timer_active && (tcp_active_pcbs || tcp_tw_pcbs)) {
 172:Middlewares/Third_Party/LwIP/src/core/timeouts.c ****     /* enable and start timer */
 173:Middlewares/Third_Party/LwIP/src/core/timeouts.c ****     tcpip_tcp_timer_active = 1;
 174:Middlewares/Third_Party/LwIP/src/core/timeouts.c ****     sys_timeout(TCP_TMR_INTERVAL, tcpip_tcp_timer, NULL);
 175:Middlewares/Third_Party/LwIP/src/core/timeouts.c ****   }
 176:Middlewares/Third_Party/LwIP/src/core/timeouts.c **** }
ARM GAS  /tmp/ccguVT0k.s 			page 5


 177:Middlewares/Third_Party/LwIP/src/core/timeouts.c **** #endif /* LWIP_TCP */
 178:Middlewares/Third_Party/LwIP/src/core/timeouts.c **** 
 179:Middlewares/Third_Party/LwIP/src/core/timeouts.c **** static void
 180:Middlewares/Third_Party/LwIP/src/core/timeouts.c **** #if LWIP_DEBUG_TIMERNAMES
 181:Middlewares/Third_Party/LwIP/src/core/timeouts.c **** sys_timeout_abs(u32_t abs_time, sys_timeout_handler handler, void *arg, const char *handler_name)
 182:Middlewares/Third_Party/LwIP/src/core/timeouts.c **** #else /* LWIP_DEBUG_TIMERNAMES */
 183:Middlewares/Third_Party/LwIP/src/core/timeouts.c **** sys_timeout_abs(u32_t abs_time, sys_timeout_handler handler, void *arg)
 184:Middlewares/Third_Party/LwIP/src/core/timeouts.c **** #endif
 185:Middlewares/Third_Party/LwIP/src/core/timeouts.c **** {
  40              		.loc 1 185 1 view -0
  41              		.cfi_startproc
  42              		@ args = 0, pretend = 0, frame = 0
  43              		@ frame_needed = 0, uses_anonymous_args = 0
  44              		.loc 1 185 1 is_stmt 0 view .LVU1
  45 0000 F8B5     		push	{r3, r4, r5, r6, r7, lr}
  46              	.LCFI0:
  47              		.cfi_def_cfa_offset 24
  48              		.cfi_offset 3, -24
  49              		.cfi_offset 4, -20
  50              		.cfi_offset 5, -16
  51              		.cfi_offset 6, -12
  52              		.cfi_offset 7, -8
  53              		.cfi_offset 14, -4
  54 0002 0446     		mov	r4, r0
  55 0004 0F46     		mov	r7, r1
  56 0006 1646     		mov	r6, r2
 186:Middlewares/Third_Party/LwIP/src/core/timeouts.c ****   struct sys_timeo *timeout, *t;
  57              		.loc 1 186 3 is_stmt 1 view .LVU2
 187:Middlewares/Third_Party/LwIP/src/core/timeouts.c **** 
 188:Middlewares/Third_Party/LwIP/src/core/timeouts.c ****   timeout = (struct sys_timeo *)memp_malloc(MEMP_SYS_TIMEOUT);
  58              		.loc 1 188 3 view .LVU3
  59              		.loc 1 188 33 is_stmt 0 view .LVU4
  60 0008 0620     		movs	r0, #6
  61              	.LVL1:
  62              		.loc 1 188 33 view .LVU5
  63 000a FFF7FEFF 		bl	memp_malloc
  64              	.LVL2:
 189:Middlewares/Third_Party/LwIP/src/core/timeouts.c ****   if (timeout == NULL) {
  65              		.loc 1 189 3 is_stmt 1 view .LVU6
  66              		.loc 1 189 6 is_stmt 0 view .LVU7
  67 000e 80B1     		cbz	r0, .L10
  68 0010 0546     		mov	r5, r0
 190:Middlewares/Third_Party/LwIP/src/core/timeouts.c ****     LWIP_ASSERT("sys_timeout: timeout != NULL, pool MEMP_SYS_TIMEOUT is empty", timeout != NULL);
 191:Middlewares/Third_Party/LwIP/src/core/timeouts.c ****     return;
 192:Middlewares/Third_Party/LwIP/src/core/timeouts.c ****   }
 193:Middlewares/Third_Party/LwIP/src/core/timeouts.c **** 
 194:Middlewares/Third_Party/LwIP/src/core/timeouts.c ****   timeout->next = NULL;
  69              		.loc 1 194 3 is_stmt 1 view .LVU8
  70              		.loc 1 194 17 is_stmt 0 view .LVU9
  71 0012 0023     		movs	r3, #0
  72 0014 0360     		str	r3, [r0]
 195:Middlewares/Third_Party/LwIP/src/core/timeouts.c ****   timeout->h = handler;
  73              		.loc 1 195 3 is_stmt 1 view .LVU10
  74              		.loc 1 195 14 is_stmt 0 view .LVU11
  75 0016 8760     		str	r7, [r0, #8]
 196:Middlewares/Third_Party/LwIP/src/core/timeouts.c ****   timeout->arg = arg;
  76              		.loc 1 196 3 is_stmt 1 view .LVU12
ARM GAS  /tmp/ccguVT0k.s 			page 6


  77              		.loc 1 196 16 is_stmt 0 view .LVU13
  78 0018 C660     		str	r6, [r0, #12]
 197:Middlewares/Third_Party/LwIP/src/core/timeouts.c ****   timeout->time = abs_time;
  79              		.loc 1 197 3 is_stmt 1 view .LVU14
  80              		.loc 1 197 17 is_stmt 0 view .LVU15
  81 001a 4460     		str	r4, [r0, #4]
 198:Middlewares/Third_Party/LwIP/src/core/timeouts.c **** 
 199:Middlewares/Third_Party/LwIP/src/core/timeouts.c **** #if LWIP_DEBUG_TIMERNAMES
 200:Middlewares/Third_Party/LwIP/src/core/timeouts.c ****   timeout->handler_name = handler_name;
 201:Middlewares/Third_Party/LwIP/src/core/timeouts.c ****   LWIP_DEBUGF(TIMERS_DEBUG, ("sys_timeout: %p abs_time=%"U32_F" handler=%s arg=%p\n",
 202:Middlewares/Third_Party/LwIP/src/core/timeouts.c ****                              (void *)timeout, abs_time, handler_name, (void *)arg));
 203:Middlewares/Third_Party/LwIP/src/core/timeouts.c **** #endif /* LWIP_DEBUG_TIMERNAMES */
 204:Middlewares/Third_Party/LwIP/src/core/timeouts.c **** 
 205:Middlewares/Third_Party/LwIP/src/core/timeouts.c ****   if (next_timeout == NULL) {
  82              		.loc 1 205 3 is_stmt 1 view .LVU16
  83              		.loc 1 205 20 is_stmt 0 view .LVU17
  84 001c 104B     		ldr	r3, .L12
  85 001e 1A68     		ldr	r2, [r3]
  86              		.loc 1 205 6 view .LVU18
  87 0020 72B1     		cbz	r2, .L11
 206:Middlewares/Third_Party/LwIP/src/core/timeouts.c ****     next_timeout = timeout;
 207:Middlewares/Third_Party/LwIP/src/core/timeouts.c ****     return;
 208:Middlewares/Third_Party/LwIP/src/core/timeouts.c ****   }
 209:Middlewares/Third_Party/LwIP/src/core/timeouts.c ****   if (TIME_LESS_THAN(timeout->time, next_timeout->time)) {
  88              		.loc 1 209 3 is_stmt 1 view .LVU19
  89              		.loc 1 209 7 is_stmt 0 view .LVU20
  90 0022 5368     		ldr	r3, [r2, #4]
  91 0024 E31A     		subs	r3, r4, r3
  92              		.loc 1 209 6 view .LVU21
  93 0026 002B     		cmp	r3, #0
  94 0028 0FDA     		bge	.L5
 210:Middlewares/Third_Party/LwIP/src/core/timeouts.c ****     timeout->next = next_timeout;
  95              		.loc 1 210 5 is_stmt 1 view .LVU22
  96              		.loc 1 210 19 is_stmt 0 view .LVU23
  97 002a 0260     		str	r2, [r0]
 211:Middlewares/Third_Party/LwIP/src/core/timeouts.c ****     next_timeout = timeout;
  98              		.loc 1 211 5 is_stmt 1 view .LVU24
  99              		.loc 1 211 18 is_stmt 0 view .LVU25
 100 002c 0C4B     		ldr	r3, .L12
 101 002e 1860     		str	r0, [r3]
 102              	.LVL3:
 103              	.L1:
 212:Middlewares/Third_Party/LwIP/src/core/timeouts.c ****   } else {
 213:Middlewares/Third_Party/LwIP/src/core/timeouts.c ****     for (t = next_timeout; t != NULL; t = t->next) {
 214:Middlewares/Third_Party/LwIP/src/core/timeouts.c ****       if ((t->next == NULL) || TIME_LESS_THAN(timeout->time, t->next->time)) {
 215:Middlewares/Third_Party/LwIP/src/core/timeouts.c ****         timeout->next = t->next;
 216:Middlewares/Third_Party/LwIP/src/core/timeouts.c ****         t->next = timeout;
 217:Middlewares/Third_Party/LwIP/src/core/timeouts.c ****         break;
 218:Middlewares/Third_Party/LwIP/src/core/timeouts.c ****       }
 219:Middlewares/Third_Party/LwIP/src/core/timeouts.c ****     }
 220:Middlewares/Third_Party/LwIP/src/core/timeouts.c ****   }
 221:Middlewares/Third_Party/LwIP/src/core/timeouts.c **** }
 104              		.loc 1 221 1 view .LVU26
 105 0030 F8BD     		pop	{r3, r4, r5, r6, r7, pc}
 106              	.LVL4:
 107              	.L10:
 190:Middlewares/Third_Party/LwIP/src/core/timeouts.c ****     return;
ARM GAS  /tmp/ccguVT0k.s 			page 7


 108              		.loc 1 190 5 is_stmt 1 discriminator 1 view .LVU27
 190:Middlewares/Third_Party/LwIP/src/core/timeouts.c ****     return;
 109              		.loc 1 190 5 discriminator 1 view .LVU28
 190:Middlewares/Third_Party/LwIP/src/core/timeouts.c ****     return;
 110              		.loc 1 190 5 discriminator 1 view .LVU29
 190:Middlewares/Third_Party/LwIP/src/core/timeouts.c ****     return;
 111              		.loc 1 190 5 discriminator 1 view .LVU30
 112 0032 0C4B     		ldr	r3, .L12+4
 113 0034 BE22     		movs	r2, #190
 114 0036 0C49     		ldr	r1, .L12+8
 115 0038 0C48     		ldr	r0, .L12+12
 116              	.LVL5:
 190:Middlewares/Third_Party/LwIP/src/core/timeouts.c ****     return;
 117              		.loc 1 190 5 is_stmt 0 discriminator 1 view .LVU31
 118 003a FFF7FEFF 		bl	printf
 119              	.LVL6:
 190:Middlewares/Third_Party/LwIP/src/core/timeouts.c ****     return;
 120              		.loc 1 190 5 is_stmt 1 discriminator 1 view .LVU32
 190:Middlewares/Third_Party/LwIP/src/core/timeouts.c ****     return;
 121              		.loc 1 190 5 discriminator 1 view .LVU33
 191:Middlewares/Third_Party/LwIP/src/core/timeouts.c ****   }
 122              		.loc 1 191 5 discriminator 1 view .LVU34
 123 003e F7E7     		b	.L1
 124              	.LVL7:
 125              	.L11:
 206:Middlewares/Third_Party/LwIP/src/core/timeouts.c ****     return;
 126              		.loc 1 206 5 view .LVU35
 206:Middlewares/Third_Party/LwIP/src/core/timeouts.c ****     return;
 127              		.loc 1 206 18 is_stmt 0 view .LVU36
 128 0040 1860     		str	r0, [r3]
 207:Middlewares/Third_Party/LwIP/src/core/timeouts.c ****   }
 129              		.loc 1 207 5 is_stmt 1 view .LVU37
 130 0042 F5E7     		b	.L1
 131              	.LVL8:
 132              	.L6:
 215:Middlewares/Third_Party/LwIP/src/core/timeouts.c ****         t->next = timeout;
 133              		.loc 1 215 9 view .LVU38
 215:Middlewares/Third_Party/LwIP/src/core/timeouts.c ****         t->next = timeout;
 134              		.loc 1 215 23 is_stmt 0 view .LVU39
 135 0044 2B60     		str	r3, [r5]
 216:Middlewares/Third_Party/LwIP/src/core/timeouts.c ****         break;
 136              		.loc 1 216 9 is_stmt 1 view .LVU40
 216:Middlewares/Third_Party/LwIP/src/core/timeouts.c ****         break;
 137              		.loc 1 216 17 is_stmt 0 view .LVU41
 138 0046 1560     		str	r5, [r2]
 217:Middlewares/Third_Party/LwIP/src/core/timeouts.c ****       }
 139              		.loc 1 217 9 is_stmt 1 view .LVU42
 140 0048 F2E7     		b	.L1
 141              	.LVL9:
 142              	.L5:
 213:Middlewares/Third_Party/LwIP/src/core/timeouts.c ****       if ((t->next == NULL) || TIME_LESS_THAN(timeout->time, t->next->time)) {
 143              		.loc 1 213 28 discriminator 1 view .LVU43
 213:Middlewares/Third_Party/LwIP/src/core/timeouts.c ****       if ((t->next == NULL) || TIME_LESS_THAN(timeout->time, t->next->time)) {
 144              		.loc 1 213 5 is_stmt 0 discriminator 1 view .LVU44
 145 004a 002A     		cmp	r2, #0
 146 004c F0D0     		beq	.L1
 214:Middlewares/Third_Party/LwIP/src/core/timeouts.c ****         timeout->next = t->next;
ARM GAS  /tmp/ccguVT0k.s 			page 8


 147              		.loc 1 214 7 is_stmt 1 view .LVU45
 214:Middlewares/Third_Party/LwIP/src/core/timeouts.c ****         timeout->next = t->next;
 148              		.loc 1 214 13 is_stmt 0 view .LVU46
 149 004e 1368     		ldr	r3, [r2]
 214:Middlewares/Third_Party/LwIP/src/core/timeouts.c ****         timeout->next = t->next;
 150              		.loc 1 214 10 view .LVU47
 151 0050 002B     		cmp	r3, #0
 152 0052 F7D0     		beq	.L6
 214:Middlewares/Third_Party/LwIP/src/core/timeouts.c ****         timeout->next = t->next;
 153              		.loc 1 214 32 discriminator 1 view .LVU48
 154 0054 5968     		ldr	r1, [r3, #4]
 155 0056 611A     		subs	r1, r4, r1
 214:Middlewares/Third_Party/LwIP/src/core/timeouts.c ****         timeout->next = t->next;
 156              		.loc 1 214 29 discriminator 1 view .LVU49
 157 0058 0029     		cmp	r1, #0
 158 005a F3DB     		blt	.L6
 213:Middlewares/Third_Party/LwIP/src/core/timeouts.c ****       if ((t->next == NULL) || TIME_LESS_THAN(timeout->time, t->next->time)) {
 159              		.loc 1 213 41 view .LVU50
 160 005c 1A46     		mov	r2, r3
 161              	.LVL10:
 213:Middlewares/Third_Party/LwIP/src/core/timeouts.c ****       if ((t->next == NULL) || TIME_LESS_THAN(timeout->time, t->next->time)) {
 162              		.loc 1 213 41 view .LVU51
 163 005e F4E7     		b	.L5
 164              	.L13:
 165              		.align	2
 166              	.L12:
 167 0060 00000000 		.word	.LANCHOR0
 168 0064 00000000 		.word	.LC0
 169 0068 34000000 		.word	.LC1
 170 006c 74000000 		.word	.LC2
 171              		.cfi_endproc
 172              	.LFE169:
 174              		.section	.text.lwip_cyclic_timer,"ax",%progbits
 175              		.align	1
 176              		.syntax unified
 177              		.thumb
 178              		.thumb_func
 180              	lwip_cyclic_timer:
 181              	.LVL11:
 182              	.LFB170:
 222:Middlewares/Third_Party/LwIP/src/core/timeouts.c **** 
 223:Middlewares/Third_Party/LwIP/src/core/timeouts.c **** /**
 224:Middlewares/Third_Party/LwIP/src/core/timeouts.c ****  * Timer callback function that calls cyclic->handler() and reschedules itself.
 225:Middlewares/Third_Party/LwIP/src/core/timeouts.c ****  *
 226:Middlewares/Third_Party/LwIP/src/core/timeouts.c ****  * @param arg unused argument
 227:Middlewares/Third_Party/LwIP/src/core/timeouts.c ****  */
 228:Middlewares/Third_Party/LwIP/src/core/timeouts.c **** #if !LWIP_TESTMODE
 229:Middlewares/Third_Party/LwIP/src/core/timeouts.c **** static
 230:Middlewares/Third_Party/LwIP/src/core/timeouts.c **** #endif
 231:Middlewares/Third_Party/LwIP/src/core/timeouts.c **** void
 232:Middlewares/Third_Party/LwIP/src/core/timeouts.c **** lwip_cyclic_timer(void *arg)
 233:Middlewares/Third_Party/LwIP/src/core/timeouts.c **** {
 183              		.loc 1 233 1 is_stmt 1 view -0
 184              		.cfi_startproc
 185              		@ args = 0, pretend = 0, frame = 0
 186              		@ frame_needed = 0, uses_anonymous_args = 0
 187              		.loc 1 233 1 is_stmt 0 view .LVU53
ARM GAS  /tmp/ccguVT0k.s 			page 9


 188 0000 38B5     		push	{r3, r4, r5, lr}
 189              	.LCFI1:
 190              		.cfi_def_cfa_offset 16
 191              		.cfi_offset 3, -16
 192              		.cfi_offset 4, -12
 193              		.cfi_offset 5, -8
 194              		.cfi_offset 14, -4
 195 0002 0446     		mov	r4, r0
 234:Middlewares/Third_Party/LwIP/src/core/timeouts.c ****   u32_t now;
 196              		.loc 1 234 3 is_stmt 1 view .LVU54
 235:Middlewares/Third_Party/LwIP/src/core/timeouts.c ****   u32_t next_timeout_time;
 197              		.loc 1 235 3 view .LVU55
 236:Middlewares/Third_Party/LwIP/src/core/timeouts.c ****   const struct lwip_cyclic_timer *cyclic = (const struct lwip_cyclic_timer *)arg;
 198              		.loc 1 236 3 view .LVU56
 199              	.LVL12:
 237:Middlewares/Third_Party/LwIP/src/core/timeouts.c **** 
 238:Middlewares/Third_Party/LwIP/src/core/timeouts.c **** #if LWIP_DEBUG_TIMERNAMES
 239:Middlewares/Third_Party/LwIP/src/core/timeouts.c ****   LWIP_DEBUGF(TIMERS_DEBUG, ("tcpip: %s()\n", cyclic->handler_name));
 240:Middlewares/Third_Party/LwIP/src/core/timeouts.c **** #endif
 241:Middlewares/Third_Party/LwIP/src/core/timeouts.c ****   cyclic->handler();
 200              		.loc 1 241 3 view .LVU57
 201              		.loc 1 241 9 is_stmt 0 view .LVU58
 202 0004 4368     		ldr	r3, [r0, #4]
 203              		.loc 1 241 3 view .LVU59
 204 0006 9847     		blx	r3
 205              	.LVL13:
 242:Middlewares/Third_Party/LwIP/src/core/timeouts.c **** 
 243:Middlewares/Third_Party/LwIP/src/core/timeouts.c ****   now = sys_now();
 206              		.loc 1 243 3 is_stmt 1 view .LVU60
 207              		.loc 1 243 9 is_stmt 0 view .LVU61
 208 0008 FFF7FEFF 		bl	sys_now
 209              	.LVL14:
 210 000c 8446     		mov	ip, r0
 211              	.LVL15:
 244:Middlewares/Third_Party/LwIP/src/core/timeouts.c ****   next_timeout_time = (u32_t)(current_timeout_due_time + cyclic->interval_ms);  /* overflow handled
 212              		.loc 1 244 3 is_stmt 1 view .LVU62
 213              		.loc 1 244 64 is_stmt 0 view .LVU63
 214 000e 2568     		ldr	r5, [r4]
 215              		.loc 1 244 23 view .LVU64
 216 0010 094B     		ldr	r3, .L18
 217 0012 1868     		ldr	r0, [r3]
 218              	.LVL16:
 219              		.loc 1 244 21 view .LVU65
 220 0014 2844     		add	r0, r0, r5
 221              	.LVL17:
 245:Middlewares/Third_Party/LwIP/src/core/timeouts.c ****   if (TIME_LESS_THAN(next_timeout_time, now)) {
 222              		.loc 1 245 3 is_stmt 1 view .LVU66
 223              		.loc 1 245 7 is_stmt 0 view .LVU67
 224 0016 A0EB0C03 		sub	r3, r0, ip
 225              		.loc 1 245 6 view .LVU68
 226 001a 002B     		cmp	r3, #0
 227 001c 06DA     		bge	.L15
 246:Middlewares/Third_Party/LwIP/src/core/timeouts.c ****     /* timer would immediately expire again -> "overload" -> restart without any correction */
 247:Middlewares/Third_Party/LwIP/src/core/timeouts.c **** #if LWIP_DEBUG_TIMERNAMES
 248:Middlewares/Third_Party/LwIP/src/core/timeouts.c ****     sys_timeout_abs((u32_t)(now + cyclic->interval_ms), lwip_cyclic_timer, arg, cyclic->handler_nam
 249:Middlewares/Third_Party/LwIP/src/core/timeouts.c **** #else
 250:Middlewares/Third_Party/LwIP/src/core/timeouts.c ****     sys_timeout_abs((u32_t)(now + cyclic->interval_ms), lwip_cyclic_timer, arg);
ARM GAS  /tmp/ccguVT0k.s 			page 10


 228              		.loc 1 250 5 is_stmt 1 view .LVU69
 229 001e 2246     		mov	r2, r4
 230 0020 0649     		ldr	r1, .L18+4
 231 0022 05EB0C00 		add	r0, r5, ip
 232              	.LVL18:
 233              		.loc 1 250 5 is_stmt 0 view .LVU70
 234 0026 FFF7FEFF 		bl	sys_timeout_abs
 235              	.LVL19:
 236              	.L14:
 251:Middlewares/Third_Party/LwIP/src/core/timeouts.c **** #endif
 252:Middlewares/Third_Party/LwIP/src/core/timeouts.c **** 
 253:Middlewares/Third_Party/LwIP/src/core/timeouts.c ****   } else {
 254:Middlewares/Third_Party/LwIP/src/core/timeouts.c ****     /* correct cyclic interval with handler execution delay and sys_check_timeouts jitter */
 255:Middlewares/Third_Party/LwIP/src/core/timeouts.c **** #if LWIP_DEBUG_TIMERNAMES
 256:Middlewares/Third_Party/LwIP/src/core/timeouts.c ****     sys_timeout_abs(next_timeout_time, lwip_cyclic_timer, arg, cyclic->handler_name);
 257:Middlewares/Third_Party/LwIP/src/core/timeouts.c **** #else
 258:Middlewares/Third_Party/LwIP/src/core/timeouts.c ****     sys_timeout_abs(next_timeout_time, lwip_cyclic_timer, arg);
 259:Middlewares/Third_Party/LwIP/src/core/timeouts.c **** #endif
 260:Middlewares/Third_Party/LwIP/src/core/timeouts.c ****   }
 261:Middlewares/Third_Party/LwIP/src/core/timeouts.c **** }
 237              		.loc 1 261 1 view .LVU71
 238 002a 38BD     		pop	{r3, r4, r5, pc}
 239              	.LVL20:
 240              	.L15:
 258:Middlewares/Third_Party/LwIP/src/core/timeouts.c **** #endif
 241              		.loc 1 258 5 is_stmt 1 view .LVU72
 242 002c 2246     		mov	r2, r4
 243 002e 0349     		ldr	r1, .L18+4
 244 0030 FFF7FEFF 		bl	sys_timeout_abs
 245              	.LVL21:
 246              		.loc 1 261 1 is_stmt 0 view .LVU73
 247 0034 F9E7     		b	.L14
 248              	.L19:
 249 0036 00BF     		.align	2
 250              	.L18:
 251 0038 00000000 		.word	.LANCHOR1
 252 003c 00000000 		.word	lwip_cyclic_timer
 253              		.cfi_endproc
 254              	.LFE170:
 256              		.section	.rodata.sys_timeout.str1.4,"aMS",%progbits,1
 257              		.align	2
 258              	.LC3:
 259 0000 54696D65 		.ascii	"Timeout time too long, max is LWIP_UINT32_MAX/4 mse"
 259      6F757420 
 259      74696D65 
 259      20746F6F 
 259      206C6F6E 
 260 0033 637300   		.ascii	"cs\000"
 261              		.section	.text.sys_timeout,"ax",%progbits
 262              		.align	1
 263              		.global	sys_timeout
 264              		.syntax unified
 265              		.thumb
 266              		.thumb_func
 268              	sys_timeout:
 269              	.LVL22:
 270              	.LFB172:
ARM GAS  /tmp/ccguVT0k.s 			page 11


 262:Middlewares/Third_Party/LwIP/src/core/timeouts.c **** 
 263:Middlewares/Third_Party/LwIP/src/core/timeouts.c **** /** Initialize this module */
 264:Middlewares/Third_Party/LwIP/src/core/timeouts.c **** void sys_timeouts_init(void)
 265:Middlewares/Third_Party/LwIP/src/core/timeouts.c **** {
 266:Middlewares/Third_Party/LwIP/src/core/timeouts.c ****   size_t i;
 267:Middlewares/Third_Party/LwIP/src/core/timeouts.c ****   /* tcp_tmr() at index 0 is started on demand */
 268:Middlewares/Third_Party/LwIP/src/core/timeouts.c ****   for (i = (LWIP_TCP ? 1 : 0); i < LWIP_ARRAYSIZE(lwip_cyclic_timers); i++) {
 269:Middlewares/Third_Party/LwIP/src/core/timeouts.c ****     /* we have to cast via size_t to get rid of const warning
 270:Middlewares/Third_Party/LwIP/src/core/timeouts.c ****       (this is OK as cyclic_timer() casts back to const* */
 271:Middlewares/Third_Party/LwIP/src/core/timeouts.c ****     sys_timeout(lwip_cyclic_timers[i].interval_ms, lwip_cyclic_timer, LWIP_CONST_CAST(void *, &lwip
 272:Middlewares/Third_Party/LwIP/src/core/timeouts.c ****   }
 273:Middlewares/Third_Party/LwIP/src/core/timeouts.c **** }
 274:Middlewares/Third_Party/LwIP/src/core/timeouts.c **** 
 275:Middlewares/Third_Party/LwIP/src/core/timeouts.c **** /**
 276:Middlewares/Third_Party/LwIP/src/core/timeouts.c ****  * Create a one-shot timer (aka timeout). Timeouts are processed in the
 277:Middlewares/Third_Party/LwIP/src/core/timeouts.c ****  * following cases:
 278:Middlewares/Third_Party/LwIP/src/core/timeouts.c ****  * - while waiting for a message using sys_timeouts_mbox_fetch()
 279:Middlewares/Third_Party/LwIP/src/core/timeouts.c ****  * - by calling sys_check_timeouts() (NO_SYS==1 only)
 280:Middlewares/Third_Party/LwIP/src/core/timeouts.c ****  *
 281:Middlewares/Third_Party/LwIP/src/core/timeouts.c ****  * @param msecs time in milliseconds after that the timer should expire
 282:Middlewares/Third_Party/LwIP/src/core/timeouts.c ****  * @param handler callback function to call when msecs have elapsed
 283:Middlewares/Third_Party/LwIP/src/core/timeouts.c ****  * @param arg argument to pass to the callback function
 284:Middlewares/Third_Party/LwIP/src/core/timeouts.c ****  */
 285:Middlewares/Third_Party/LwIP/src/core/timeouts.c **** #if LWIP_DEBUG_TIMERNAMES
 286:Middlewares/Third_Party/LwIP/src/core/timeouts.c **** void
 287:Middlewares/Third_Party/LwIP/src/core/timeouts.c **** sys_timeout_debug(u32_t msecs, sys_timeout_handler handler, void *arg, const char *handler_name)
 288:Middlewares/Third_Party/LwIP/src/core/timeouts.c **** #else /* LWIP_DEBUG_TIMERNAMES */
 289:Middlewares/Third_Party/LwIP/src/core/timeouts.c **** void
 290:Middlewares/Third_Party/LwIP/src/core/timeouts.c **** sys_timeout(u32_t msecs, sys_timeout_handler handler, void *arg)
 291:Middlewares/Third_Party/LwIP/src/core/timeouts.c **** #endif /* LWIP_DEBUG_TIMERNAMES */
 292:Middlewares/Third_Party/LwIP/src/core/timeouts.c **** {
 271              		.loc 1 292 1 is_stmt 1 view -0
 272              		.cfi_startproc
 273              		@ args = 0, pretend = 0, frame = 0
 274              		@ frame_needed = 0, uses_anonymous_args = 0
 275              		.loc 1 292 1 is_stmt 0 view .LVU75
 276 0000 70B5     		push	{r4, r5, r6, lr}
 277              	.LCFI2:
 278              		.cfi_def_cfa_offset 16
 279              		.cfi_offset 4, -16
 280              		.cfi_offset 5, -12
 281              		.cfi_offset 6, -8
 282              		.cfi_offset 14, -4
 283 0002 0446     		mov	r4, r0
 284 0004 0D46     		mov	r5, r1
 285 0006 1646     		mov	r6, r2
 293:Middlewares/Third_Party/LwIP/src/core/timeouts.c ****   u32_t next_timeout_time;
 286              		.loc 1 293 3 is_stmt 1 view .LVU76
 294:Middlewares/Third_Party/LwIP/src/core/timeouts.c **** 
 295:Middlewares/Third_Party/LwIP/src/core/timeouts.c ****   LWIP_ASSERT_CORE_LOCKED();
 287              		.loc 1 295 28 view .LVU77
 296:Middlewares/Third_Party/LwIP/src/core/timeouts.c **** 
 297:Middlewares/Third_Party/LwIP/src/core/timeouts.c ****   LWIP_ASSERT("Timeout time too long, max is LWIP_UINT32_MAX/4 msecs", msecs <= (LWIP_UINT32_MAX / 
 288              		.loc 1 297 3 view .LVU78
 289              		.loc 1 297 3 view .LVU79
 290 0008 B0F1804F 		cmp	r0, #1073741824
 291 000c 07D2     		bcs	.L23
ARM GAS  /tmp/ccguVT0k.s 			page 12


 292              	.LVL23:
 293              	.L21:
 294              		.loc 1 297 3 discriminator 3 view .LVU80
 295              		.loc 1 297 3 discriminator 3 view .LVU81
 298:Middlewares/Third_Party/LwIP/src/core/timeouts.c **** 
 299:Middlewares/Third_Party/LwIP/src/core/timeouts.c ****   next_timeout_time = (u32_t)(sys_now() + msecs); /* overflow handled by TIME_LESS_THAN macro */ 
 296              		.loc 1 299 3 discriminator 3 view .LVU82
 297              		.loc 1 299 31 is_stmt 0 discriminator 3 view .LVU83
 298 000e FFF7FEFF 		bl	sys_now
 299              	.LVL24:
 300:Middlewares/Third_Party/LwIP/src/core/timeouts.c **** 
 301:Middlewares/Third_Party/LwIP/src/core/timeouts.c **** #if LWIP_DEBUG_TIMERNAMES
 302:Middlewares/Third_Party/LwIP/src/core/timeouts.c ****   sys_timeout_abs(next_timeout_time, handler, arg, handler_name);
 303:Middlewares/Third_Party/LwIP/src/core/timeouts.c **** #else
 304:Middlewares/Third_Party/LwIP/src/core/timeouts.c ****   sys_timeout_abs(next_timeout_time, handler, arg);
 300              		.loc 1 304 3 is_stmt 1 discriminator 3 view .LVU84
 301 0012 3246     		mov	r2, r6
 302 0014 2946     		mov	r1, r5
 303 0016 2044     		add	r0, r0, r4
 304              	.LVL25:
 305              		.loc 1 304 3 is_stmt 0 discriminator 3 view .LVU85
 306 0018 FFF7FEFF 		bl	sys_timeout_abs
 307              	.LVL26:
 305:Middlewares/Third_Party/LwIP/src/core/timeouts.c **** #endif
 306:Middlewares/Third_Party/LwIP/src/core/timeouts.c **** }
 308              		.loc 1 306 1 discriminator 3 view .LVU86
 309 001c 70BD     		pop	{r4, r5, r6, pc}
 310              	.LVL27:
 311              	.L23:
 297:Middlewares/Third_Party/LwIP/src/core/timeouts.c **** 
 312              		.loc 1 297 3 is_stmt 1 discriminator 1 view .LVU87
 297:Middlewares/Third_Party/LwIP/src/core/timeouts.c **** 
 313              		.loc 1 297 3 discriminator 1 view .LVU88
 314 001e 044B     		ldr	r3, .L24
 315 0020 40F22912 		movw	r2, #297
 316              	.LVL28:
 297:Middlewares/Third_Party/LwIP/src/core/timeouts.c **** 
 317              		.loc 1 297 3 is_stmt 0 discriminator 1 view .LVU89
 318 0024 0349     		ldr	r1, .L24+4
 319              	.LVL29:
 297:Middlewares/Third_Party/LwIP/src/core/timeouts.c **** 
 320              		.loc 1 297 3 discriminator 1 view .LVU90
 321 0026 0448     		ldr	r0, .L24+8
 322              	.LVL30:
 297:Middlewares/Third_Party/LwIP/src/core/timeouts.c **** 
 323              		.loc 1 297 3 discriminator 1 view .LVU91
 324 0028 FFF7FEFF 		bl	printf
 325              	.LVL31:
 326 002c EFE7     		b	.L21
 327              	.L25:
 328 002e 00BF     		.align	2
 329              	.L24:
 330 0030 00000000 		.word	.LC0
 331 0034 00000000 		.word	.LC3
 332 0038 74000000 		.word	.LC2
 333              		.cfi_endproc
 334              	.LFE172:
ARM GAS  /tmp/ccguVT0k.s 			page 13


 336              		.section	.text.tcp_timer_needed,"ax",%progbits
 337              		.align	1
 338              		.global	tcp_timer_needed
 339              		.syntax unified
 340              		.thumb
 341              		.thumb_func
 343              	tcp_timer_needed:
 344              	.LFB168:
 167:Middlewares/Third_Party/LwIP/src/core/timeouts.c ****   LWIP_ASSERT_CORE_LOCKED();
 345              		.loc 1 167 1 is_stmt 1 view -0
 346              		.cfi_startproc
 347              		@ args = 0, pretend = 0, frame = 0
 348              		@ frame_needed = 0, uses_anonymous_args = 0
 349 0000 08B5     		push	{r3, lr}
 350              	.LCFI3:
 351              		.cfi_def_cfa_offset 8
 352              		.cfi_offset 3, -8
 353              		.cfi_offset 14, -4
 168:Middlewares/Third_Party/LwIP/src/core/timeouts.c **** 
 354              		.loc 1 168 28 view .LVU93
 171:Middlewares/Third_Party/LwIP/src/core/timeouts.c ****     /* enable and start timer */
 355              		.loc 1 171 3 view .LVU94
 171:Middlewares/Third_Party/LwIP/src/core/timeouts.c ****     /* enable and start timer */
 356              		.loc 1 171 7 is_stmt 0 view .LVU95
 357 0002 0A4B     		ldr	r3, .L31
 358 0004 1B68     		ldr	r3, [r3]
 171:Middlewares/Third_Party/LwIP/src/core/timeouts.c ****     /* enable and start timer */
 359              		.loc 1 171 6 view .LVU96
 360 0006 53B9     		cbnz	r3, .L26
 171:Middlewares/Third_Party/LwIP/src/core/timeouts.c ****     /* enable and start timer */
 361              		.loc 1 171 35 discriminator 1 view .LVU97
 362 0008 094B     		ldr	r3, .L31+4
 363 000a 1B68     		ldr	r3, [r3]
 171:Middlewares/Third_Party/LwIP/src/core/timeouts.c ****     /* enable and start timer */
 364              		.loc 1 171 31 discriminator 1 view .LVU98
 365 000c 43B1     		cbz	r3, .L30
 366              	.L28:
 173:Middlewares/Third_Party/LwIP/src/core/timeouts.c ****     sys_timeout(TCP_TMR_INTERVAL, tcpip_tcp_timer, NULL);
 367              		.loc 1 173 5 is_stmt 1 view .LVU99
 173:Middlewares/Third_Party/LwIP/src/core/timeouts.c ****     sys_timeout(TCP_TMR_INTERVAL, tcpip_tcp_timer, NULL);
 368              		.loc 1 173 28 is_stmt 0 view .LVU100
 369 000e 074B     		ldr	r3, .L31
 370 0010 0122     		movs	r2, #1
 371 0012 1A60     		str	r2, [r3]
 174:Middlewares/Third_Party/LwIP/src/core/timeouts.c ****   }
 372              		.loc 1 174 5 is_stmt 1 view .LVU101
 373 0014 0022     		movs	r2, #0
 374 0016 0749     		ldr	r1, .L31+8
 375 0018 FA20     		movs	r0, #250
 376 001a FFF7FEFF 		bl	sys_timeout
 377              	.LVL32:
 378              	.L26:
 176:Middlewares/Third_Party/LwIP/src/core/timeouts.c **** #endif /* LWIP_TCP */
 379              		.loc 1 176 1 is_stmt 0 view .LVU102
 380 001e 08BD     		pop	{r3, pc}
 381              	.L30:
 171:Middlewares/Third_Party/LwIP/src/core/timeouts.c ****     /* enable and start timer */
ARM GAS  /tmp/ccguVT0k.s 			page 14


 382              		.loc 1 171 51 discriminator 2 view .LVU103
 383 0020 054B     		ldr	r3, .L31+12
 384 0022 1B68     		ldr	r3, [r3]
 385 0024 002B     		cmp	r3, #0
 386 0026 F2D1     		bne	.L28
 387 0028 F9E7     		b	.L26
 388              	.L32:
 389 002a 00BF     		.align	2
 390              	.L31:
 391 002c 00000000 		.word	.LANCHOR2
 392 0030 00000000 		.word	tcp_active_pcbs
 393 0034 00000000 		.word	tcpip_tcp_timer
 394 0038 00000000 		.word	tcp_tw_pcbs
 395              		.cfi_endproc
 396              	.LFE168:
 398              		.section	.text.tcpip_tcp_timer,"ax",%progbits
 399              		.align	1
 400              		.syntax unified
 401              		.thumb
 402              		.thumb_func
 404              	tcpip_tcp_timer:
 405              	.LVL33:
 406              	.LFB167:
 145:Middlewares/Third_Party/LwIP/src/core/timeouts.c ****   LWIP_UNUSED_ARG(arg);
 407              		.loc 1 145 1 is_stmt 1 view -0
 408              		.cfi_startproc
 409              		@ args = 0, pretend = 0, frame = 0
 410              		@ frame_needed = 0, uses_anonymous_args = 0
 145:Middlewares/Third_Party/LwIP/src/core/timeouts.c ****   LWIP_UNUSED_ARG(arg);
 411              		.loc 1 145 1 is_stmt 0 view .LVU105
 412 0000 08B5     		push	{r3, lr}
 413              	.LCFI4:
 414              		.cfi_def_cfa_offset 8
 415              		.cfi_offset 3, -8
 416              		.cfi_offset 14, -4
 146:Middlewares/Third_Party/LwIP/src/core/timeouts.c **** 
 417              		.loc 1 146 3 is_stmt 1 view .LVU106
 149:Middlewares/Third_Party/LwIP/src/core/timeouts.c ****   /* timer still needed? */
 418              		.loc 1 149 3 view .LVU107
 419 0002 FFF7FEFF 		bl	tcp_tmr
 420              	.LVL34:
 151:Middlewares/Third_Party/LwIP/src/core/timeouts.c ****     /* restart timer */
 421              		.loc 1 151 3 view .LVU108
 151:Middlewares/Third_Party/LwIP/src/core/timeouts.c ****     /* restart timer */
 422              		.loc 1 151 7 is_stmt 0 view .LVU109
 423 0006 084B     		ldr	r3, .L39
 424 0008 1B68     		ldr	r3, [r3]
 151:Middlewares/Third_Party/LwIP/src/core/timeouts.c ****     /* restart timer */
 425              		.loc 1 151 6 view .LVU110
 426 000a 2BB1     		cbz	r3, .L38
 427              	.L34:
 153:Middlewares/Third_Party/LwIP/src/core/timeouts.c ****   } else {
 428              		.loc 1 153 5 is_stmt 1 view .LVU111
 429 000c 0022     		movs	r2, #0
 430 000e 0749     		ldr	r1, .L39+4
 431 0010 FA20     		movs	r0, #250
 432 0012 FFF7FEFF 		bl	sys_timeout
ARM GAS  /tmp/ccguVT0k.s 			page 15


 433              	.LVL35:
 434              	.L33:
 158:Middlewares/Third_Party/LwIP/src/core/timeouts.c **** 
 435              		.loc 1 158 1 is_stmt 0 view .LVU112
 436 0016 08BD     		pop	{r3, pc}
 437              	.L38:
 151:Middlewares/Third_Party/LwIP/src/core/timeouts.c ****     /* restart timer */
 438              		.loc 1 151 23 discriminator 1 view .LVU113
 439 0018 054B     		ldr	r3, .L39+8
 440 001a 1B68     		ldr	r3, [r3]
 441 001c 002B     		cmp	r3, #0
 442 001e F5D1     		bne	.L34
 156:Middlewares/Third_Party/LwIP/src/core/timeouts.c ****   }
 443              		.loc 1 156 5 is_stmt 1 view .LVU114
 156:Middlewares/Third_Party/LwIP/src/core/timeouts.c ****   }
 444              		.loc 1 156 28 is_stmt 0 view .LVU115
 445 0020 044B     		ldr	r3, .L39+12
 446 0022 0022     		movs	r2, #0
 447 0024 1A60     		str	r2, [r3]
 158:Middlewares/Third_Party/LwIP/src/core/timeouts.c **** 
 448              		.loc 1 158 1 view .LVU116
 449 0026 F6E7     		b	.L33
 450              	.L40:
 451              		.align	2
 452              	.L39:
 453 0028 00000000 		.word	tcp_active_pcbs
 454 002c 00000000 		.word	tcpip_tcp_timer
 455 0030 00000000 		.word	tcp_tw_pcbs
 456 0034 00000000 		.word	.LANCHOR2
 457              		.cfi_endproc
 458              	.LFE167:
 460              		.section	.text.sys_timeouts_init,"ax",%progbits
 461              		.align	1
 462              		.global	sys_timeouts_init
 463              		.syntax unified
 464              		.thumb
 465              		.thumb_func
 467              	sys_timeouts_init:
 468              	.LFB171:
 265:Middlewares/Third_Party/LwIP/src/core/timeouts.c ****   size_t i;
 469              		.loc 1 265 1 is_stmt 1 view -0
 470              		.cfi_startproc
 471              		@ args = 0, pretend = 0, frame = 0
 472              		@ frame_needed = 0, uses_anonymous_args = 0
 473 0000 10B5     		push	{r4, lr}
 474              	.LCFI5:
 475              		.cfi_def_cfa_offset 8
 476              		.cfi_offset 4, -8
 477              		.cfi_offset 14, -4
 266:Middlewares/Third_Party/LwIP/src/core/timeouts.c ****   /* tcp_tmr() at index 0 is started on demand */
 478              		.loc 1 266 3 view .LVU118
 268:Middlewares/Third_Party/LwIP/src/core/timeouts.c ****     /* we have to cast via size_t to get rid of const warning
 479              		.loc 1 268 3 view .LVU119
 480              	.LVL36:
 268:Middlewares/Third_Party/LwIP/src/core/timeouts.c ****     /* we have to cast via size_t to get rid of const warning
 481              		.loc 1 268 10 is_stmt 0 view .LVU120
 482 0002 0124     		movs	r4, #1
ARM GAS  /tmp/ccguVT0k.s 			page 16


 268:Middlewares/Third_Party/LwIP/src/core/timeouts.c ****     /* we have to cast via size_t to get rid of const warning
 483              		.loc 1 268 3 view .LVU121
 484 0004 08E0     		b	.L42
 485              	.LVL37:
 486              	.L43:
 271:Middlewares/Third_Party/LwIP/src/core/timeouts.c ****   }
 487              		.loc 1 271 5 is_stmt 1 discriminator 3 view .LVU122
 271:Middlewares/Third_Party/LwIP/src/core/timeouts.c ****   }
 488              		.loc 1 271 71 is_stmt 0 discriminator 3 view .LVU123
 489 0006 064B     		ldr	r3, .L45
 271:Middlewares/Third_Party/LwIP/src/core/timeouts.c ****   }
 490              		.loc 1 271 5 discriminator 3 view .LVU124
 491 0008 03EBC402 		add	r2, r3, r4, lsl #3
 492 000c 0549     		ldr	r1, .L45+4
 493 000e 53F83400 		ldr	r0, [r3, r4, lsl #3]
 494 0012 FFF7FEFF 		bl	sys_timeout
 495              	.LVL38:
 268:Middlewares/Third_Party/LwIP/src/core/timeouts.c ****     /* we have to cast via size_t to get rid of const warning
 496              		.loc 1 268 72 is_stmt 1 discriminator 3 view .LVU125
 268:Middlewares/Third_Party/LwIP/src/core/timeouts.c ****     /* we have to cast via size_t to get rid of const warning
 497              		.loc 1 268 73 is_stmt 0 discriminator 3 view .LVU126
 498 0016 0134     		adds	r4, r4, #1
 499              	.LVL39:
 500              	.L42:
 268:Middlewares/Third_Party/LwIP/src/core/timeouts.c ****     /* we have to cast via size_t to get rid of const warning
 501              		.loc 1 268 32 is_stmt 1 discriminator 1 view .LVU127
 268:Middlewares/Third_Party/LwIP/src/core/timeouts.c ****     /* we have to cast via size_t to get rid of const warning
 502              		.loc 1 268 3 is_stmt 0 discriminator 1 view .LVU128
 503 0018 022C     		cmp	r4, #2
 504 001a F4D9     		bls	.L43
 273:Middlewares/Third_Party/LwIP/src/core/timeouts.c **** 
 505              		.loc 1 273 1 view .LVU129
 506 001c 10BD     		pop	{r4, pc}
 507              	.LVL40:
 508              	.L46:
 273:Middlewares/Third_Party/LwIP/src/core/timeouts.c **** 
 509              		.loc 1 273 1 view .LVU130
 510 001e 00BF     		.align	2
 511              	.L45:
 512 0020 00000000 		.word	.LANCHOR3
 513 0024 00000000 		.word	lwip_cyclic_timer
 514              		.cfi_endproc
 515              	.LFE171:
 517              		.section	.text.sys_untimeout,"ax",%progbits
 518              		.align	1
 519              		.global	sys_untimeout
 520              		.syntax unified
 521              		.thumb
 522              		.thumb_func
 524              	sys_untimeout:
 525              	.LVL41:
 526              	.LFB173:
 307:Middlewares/Third_Party/LwIP/src/core/timeouts.c **** 
 308:Middlewares/Third_Party/LwIP/src/core/timeouts.c **** /**
 309:Middlewares/Third_Party/LwIP/src/core/timeouts.c ****  * Go through timeout list (for this task only) and remove the first matching
 310:Middlewares/Third_Party/LwIP/src/core/timeouts.c ****  * entry (subsequent entries remain untouched), even though the timeout has not
 311:Middlewares/Third_Party/LwIP/src/core/timeouts.c ****  * triggered yet.
ARM GAS  /tmp/ccguVT0k.s 			page 17


 312:Middlewares/Third_Party/LwIP/src/core/timeouts.c ****  *
 313:Middlewares/Third_Party/LwIP/src/core/timeouts.c ****  * @param handler callback function that would be called by the timeout
 314:Middlewares/Third_Party/LwIP/src/core/timeouts.c ****  * @param arg callback argument that would be passed to handler
 315:Middlewares/Third_Party/LwIP/src/core/timeouts.c **** */
 316:Middlewares/Third_Party/LwIP/src/core/timeouts.c **** void
 317:Middlewares/Third_Party/LwIP/src/core/timeouts.c **** sys_untimeout(sys_timeout_handler handler, void *arg)
 318:Middlewares/Third_Party/LwIP/src/core/timeouts.c **** {
 527              		.loc 1 318 1 is_stmt 1 view -0
 528              		.cfi_startproc
 529              		@ args = 0, pretend = 0, frame = 0
 530              		@ frame_needed = 0, uses_anonymous_args = 0
 531              		.loc 1 318 1 is_stmt 0 view .LVU132
 532 0000 08B5     		push	{r3, lr}
 533              	.LCFI6:
 534              		.cfi_def_cfa_offset 8
 535              		.cfi_offset 3, -8
 536              		.cfi_offset 14, -4
 537 0002 8C46     		mov	ip, r1
 319:Middlewares/Third_Party/LwIP/src/core/timeouts.c ****   struct sys_timeo *prev_t, *t;
 538              		.loc 1 319 3 is_stmt 1 view .LVU133
 320:Middlewares/Third_Party/LwIP/src/core/timeouts.c **** 
 321:Middlewares/Third_Party/LwIP/src/core/timeouts.c ****   LWIP_ASSERT_CORE_LOCKED();
 539              		.loc 1 321 28 view .LVU134
 322:Middlewares/Third_Party/LwIP/src/core/timeouts.c **** 
 323:Middlewares/Third_Party/LwIP/src/core/timeouts.c ****   if (next_timeout == NULL) {
 540              		.loc 1 323 3 view .LVU135
 541              		.loc 1 323 20 is_stmt 0 view .LVU136
 542 0004 0C4B     		ldr	r3, .L56
 543 0006 1968     		ldr	r1, [r3]
 544              	.LVL42:
 545              		.loc 1 323 6 view .LVU137
 546 0008 A9B1     		cbz	r1, .L47
 324:Middlewares/Third_Party/LwIP/src/core/timeouts.c ****     return;
 325:Middlewares/Third_Party/LwIP/src/core/timeouts.c ****   }
 326:Middlewares/Third_Party/LwIP/src/core/timeouts.c **** 
 327:Middlewares/Third_Party/LwIP/src/core/timeouts.c ****   for (t = next_timeout, prev_t = NULL; t != NULL; prev_t = t, t = t->next) {
 547              		.loc 1 327 33 view .LVU138
 548 000a 0022     		movs	r2, #0
 549 000c 05E0     		b	.L49
 550              	.LVL43:
 551              	.L55:
 328:Middlewares/Third_Party/LwIP/src/core/timeouts.c ****     if ((t->h == handler) && (t->arg == arg)) {
 329:Middlewares/Third_Party/LwIP/src/core/timeouts.c ****       /* We have a match */
 330:Middlewares/Third_Party/LwIP/src/core/timeouts.c ****       /* Unlink from previous in list */
 331:Middlewares/Third_Party/LwIP/src/core/timeouts.c ****       if (prev_t == NULL) {
 332:Middlewares/Third_Party/LwIP/src/core/timeouts.c ****         next_timeout = t->next;
 552              		.loc 1 332 9 is_stmt 1 view .LVU139
 553              		.loc 1 332 25 is_stmt 0 view .LVU140
 554 000e 0A68     		ldr	r2, [r1]
 555              	.LVL44:
 556              		.loc 1 332 22 view .LVU141
 557 0010 094B     		ldr	r3, .L56
 558 0012 1A60     		str	r2, [r3]
 559 0014 0CE0     		b	.L52
 560              	.LVL45:
 561              	.L50:
 327:Middlewares/Third_Party/LwIP/src/core/timeouts.c ****     if ((t->h == handler) && (t->arg == arg)) {
ARM GAS  /tmp/ccguVT0k.s 			page 18


 562              		.loc 1 327 52 is_stmt 1 discriminator 2 view .LVU142
 327:Middlewares/Third_Party/LwIP/src/core/timeouts.c ****     if ((t->h == handler) && (t->arg == arg)) {
 563              		.loc 1 327 59 is_stmt 0 discriminator 2 view .LVU143
 564 0016 0A46     		mov	r2, r1
 327:Middlewares/Third_Party/LwIP/src/core/timeouts.c ****     if ((t->h == handler) && (t->arg == arg)) {
 565              		.loc 1 327 66 discriminator 2 view .LVU144
 566 0018 0968     		ldr	r1, [r1]
 567              	.LVL46:
 568              	.L49:
 327:Middlewares/Third_Party/LwIP/src/core/timeouts.c ****     if ((t->h == handler) && (t->arg == arg)) {
 569              		.loc 1 327 41 is_stmt 1 discriminator 1 view .LVU145
 327:Middlewares/Third_Party/LwIP/src/core/timeouts.c ****     if ((t->h == handler) && (t->arg == arg)) {
 570              		.loc 1 327 3 is_stmt 0 discriminator 1 view .LVU146
 571 001a 61B1     		cbz	r1, .L47
 328:Middlewares/Third_Party/LwIP/src/core/timeouts.c ****     if ((t->h == handler) && (t->arg == arg)) {
 572              		.loc 1 328 5 is_stmt 1 view .LVU147
 328:Middlewares/Third_Party/LwIP/src/core/timeouts.c ****     if ((t->h == handler) && (t->arg == arg)) {
 573              		.loc 1 328 11 is_stmt 0 view .LVU148
 574 001c 8B68     		ldr	r3, [r1, #8]
 328:Middlewares/Third_Party/LwIP/src/core/timeouts.c ****     if ((t->h == handler) && (t->arg == arg)) {
 575              		.loc 1 328 8 view .LVU149
 576 001e 8342     		cmp	r3, r0
 577 0020 F9D1     		bne	.L50
 328:Middlewares/Third_Party/LwIP/src/core/timeouts.c ****     if ((t->h == handler) && (t->arg == arg)) {
 578              		.loc 1 328 32 discriminator 1 view .LVU150
 579 0022 CB68     		ldr	r3, [r1, #12]
 328:Middlewares/Third_Party/LwIP/src/core/timeouts.c ****     if ((t->h == handler) && (t->arg == arg)) {
 580              		.loc 1 328 27 discriminator 1 view .LVU151
 581 0024 6345     		cmp	r3, ip
 582 0026 F6D1     		bne	.L50
 331:Middlewares/Third_Party/LwIP/src/core/timeouts.c ****         next_timeout = t->next;
 583              		.loc 1 331 7 is_stmt 1 view .LVU152
 331:Middlewares/Third_Party/LwIP/src/core/timeouts.c ****         next_timeout = t->next;
 584              		.loc 1 331 10 is_stmt 0 view .LVU153
 585 0028 002A     		cmp	r2, #0
 586 002a F0D0     		beq	.L55
 333:Middlewares/Third_Party/LwIP/src/core/timeouts.c ****       } else {
 334:Middlewares/Third_Party/LwIP/src/core/timeouts.c ****         prev_t->next = t->next;
 587              		.loc 1 334 9 is_stmt 1 view .LVU154
 588              		.loc 1 334 25 is_stmt 0 view .LVU155
 589 002c 0B68     		ldr	r3, [r1]
 590              		.loc 1 334 22 view .LVU156
 591 002e 1360     		str	r3, [r2]
 592              	.LVL47:
 593              	.L52:
 335:Middlewares/Third_Party/LwIP/src/core/timeouts.c ****       }
 336:Middlewares/Third_Party/LwIP/src/core/timeouts.c ****       memp_free(MEMP_SYS_TIMEOUT, t);
 594              		.loc 1 336 7 is_stmt 1 view .LVU157
 595 0030 0620     		movs	r0, #6
 596              	.LVL48:
 597              		.loc 1 336 7 is_stmt 0 view .LVU158
 598 0032 FFF7FEFF 		bl	memp_free
 599              	.LVL49:
 337:Middlewares/Third_Party/LwIP/src/core/timeouts.c ****       return;
 600              		.loc 1 337 7 is_stmt 1 view .LVU159
 601              	.L47:
 338:Middlewares/Third_Party/LwIP/src/core/timeouts.c ****     }
ARM GAS  /tmp/ccguVT0k.s 			page 19


 339:Middlewares/Third_Party/LwIP/src/core/timeouts.c ****   }
 340:Middlewares/Third_Party/LwIP/src/core/timeouts.c ****   return;
 341:Middlewares/Third_Party/LwIP/src/core/timeouts.c **** }
 602              		.loc 1 341 1 is_stmt 0 view .LVU160
 603 0036 08BD     		pop	{r3, pc}
 604              	.L57:
 605              		.align	2
 606              	.L56:
 607 0038 00000000 		.word	.LANCHOR0
 608              		.cfi_endproc
 609              	.LFE173:
 611              		.section	.text.sys_check_timeouts,"ax",%progbits
 612              		.align	1
 613              		.global	sys_check_timeouts
 614              		.syntax unified
 615              		.thumb
 616              		.thumb_func
 618              	sys_check_timeouts:
 619              	.LFB174:
 342:Middlewares/Third_Party/LwIP/src/core/timeouts.c **** 
 343:Middlewares/Third_Party/LwIP/src/core/timeouts.c **** /**
 344:Middlewares/Third_Party/LwIP/src/core/timeouts.c ****  * @ingroup lwip_nosys
 345:Middlewares/Third_Party/LwIP/src/core/timeouts.c ****  * Handle timeouts for NO_SYS==1 (i.e. without using
 346:Middlewares/Third_Party/LwIP/src/core/timeouts.c ****  * tcpip_thread/sys_timeouts_mbox_fetch(). Uses sys_now() to call timeout
 347:Middlewares/Third_Party/LwIP/src/core/timeouts.c ****  * handler functions when timeouts expire.
 348:Middlewares/Third_Party/LwIP/src/core/timeouts.c ****  *
 349:Middlewares/Third_Party/LwIP/src/core/timeouts.c ****  * Must be called periodically from your main loop.
 350:Middlewares/Third_Party/LwIP/src/core/timeouts.c ****  */
 351:Middlewares/Third_Party/LwIP/src/core/timeouts.c **** void
 352:Middlewares/Third_Party/LwIP/src/core/timeouts.c **** sys_check_timeouts(void)
 353:Middlewares/Third_Party/LwIP/src/core/timeouts.c **** {
 620              		.loc 1 353 1 is_stmt 1 view -0
 621              		.cfi_startproc
 622              		@ args = 0, pretend = 0, frame = 0
 623              		@ frame_needed = 0, uses_anonymous_args = 0
 624 0000 70B5     		push	{r4, r5, r6, lr}
 625              	.LCFI7:
 626              		.cfi_def_cfa_offset 16
 627              		.cfi_offset 4, -16
 628              		.cfi_offset 5, -12
 629              		.cfi_offset 6, -8
 630              		.cfi_offset 14, -4
 354:Middlewares/Third_Party/LwIP/src/core/timeouts.c ****   u32_t now;
 631              		.loc 1 354 3 view .LVU162
 355:Middlewares/Third_Party/LwIP/src/core/timeouts.c **** 
 356:Middlewares/Third_Party/LwIP/src/core/timeouts.c ****   LWIP_ASSERT_CORE_LOCKED();
 632              		.loc 1 356 28 view .LVU163
 357:Middlewares/Third_Party/LwIP/src/core/timeouts.c **** 
 358:Middlewares/Third_Party/LwIP/src/core/timeouts.c ****   /* Process only timers expired at the start of the function. */
 359:Middlewares/Third_Party/LwIP/src/core/timeouts.c ****   now = sys_now();
 633              		.loc 1 359 3 view .LVU164
 634              		.loc 1 359 9 is_stmt 0 view .LVU165
 635 0002 FFF7FEFF 		bl	sys_now
 636              	.LVL50:
 637 0006 0546     		mov	r5, r0
 638              	.LVL51:
 639              		.loc 1 359 9 view .LVU166
ARM GAS  /tmp/ccguVT0k.s 			page 20


 640 0008 11E0     		b	.L61
 641              	.LVL52:
 642              	.L59:
 643              	.LBB2:
 360:Middlewares/Third_Party/LwIP/src/core/timeouts.c **** 
 361:Middlewares/Third_Party/LwIP/src/core/timeouts.c ****   do {
 362:Middlewares/Third_Party/LwIP/src/core/timeouts.c ****     struct sys_timeo *tmptimeout;
 363:Middlewares/Third_Party/LwIP/src/core/timeouts.c ****     sys_timeout_handler handler;
 364:Middlewares/Third_Party/LwIP/src/core/timeouts.c ****     void *arg;
 365:Middlewares/Third_Party/LwIP/src/core/timeouts.c **** 
 366:Middlewares/Third_Party/LwIP/src/core/timeouts.c ****     PBUF_CHECK_FREE_OOSEQ();
 644              		.loc 1 366 5 is_stmt 1 discriminator 3 view .LVU167
 367:Middlewares/Third_Party/LwIP/src/core/timeouts.c **** 
 368:Middlewares/Third_Party/LwIP/src/core/timeouts.c ****     tmptimeout = next_timeout;
 645              		.loc 1 368 5 discriminator 3 view .LVU168
 646              		.loc 1 368 16 is_stmt 0 discriminator 3 view .LVU169
 647 000a 0E4B     		ldr	r3, .L65
 648 000c 1968     		ldr	r1, [r3]
 649              	.LVL53:
 369:Middlewares/Third_Party/LwIP/src/core/timeouts.c ****     if (tmptimeout == NULL) {
 650              		.loc 1 369 5 is_stmt 1 discriminator 3 view .LVU170
 651              		.loc 1 369 8 is_stmt 0 discriminator 3 view .LVU171
 652 000e C1B1     		cbz	r1, .L58
 370:Middlewares/Third_Party/LwIP/src/core/timeouts.c ****       return;
 371:Middlewares/Third_Party/LwIP/src/core/timeouts.c ****     }
 372:Middlewares/Third_Party/LwIP/src/core/timeouts.c **** 
 373:Middlewares/Third_Party/LwIP/src/core/timeouts.c ****     if (TIME_LESS_THAN(now, tmptimeout->time)) {
 653              		.loc 1 373 5 is_stmt 1 view .LVU172
 654              		.loc 1 373 9 is_stmt 0 view .LVU173
 655 0010 4B68     		ldr	r3, [r1, #4]
 656 0012 EA1A     		subs	r2, r5, r3
 657              		.loc 1 373 8 view .LVU174
 658 0014 002A     		cmp	r2, #0
 659 0016 14DB     		blt	.L58
 374:Middlewares/Third_Party/LwIP/src/core/timeouts.c ****       return;
 375:Middlewares/Third_Party/LwIP/src/core/timeouts.c ****     }
 376:Middlewares/Third_Party/LwIP/src/core/timeouts.c **** 
 377:Middlewares/Third_Party/LwIP/src/core/timeouts.c ****     /* Timeout has expired */
 378:Middlewares/Third_Party/LwIP/src/core/timeouts.c ****     next_timeout = tmptimeout->next;
 660              		.loc 1 378 5 is_stmt 1 view .LVU175
 661              		.loc 1 378 30 is_stmt 0 view .LVU176
 662 0018 0868     		ldr	r0, [r1]
 663              		.loc 1 378 18 view .LVU177
 664 001a 0A4A     		ldr	r2, .L65
 665 001c 1060     		str	r0, [r2]
 379:Middlewares/Third_Party/LwIP/src/core/timeouts.c ****     handler = tmptimeout->h;
 666              		.loc 1 379 5 is_stmt 1 view .LVU178
 667              		.loc 1 379 13 is_stmt 0 view .LVU179
 668 001e 8C68     		ldr	r4, [r1, #8]
 669              	.LVL54:
 380:Middlewares/Third_Party/LwIP/src/core/timeouts.c ****     arg = tmptimeout->arg;
 670              		.loc 1 380 5 is_stmt 1 view .LVU180
 671              		.loc 1 380 9 is_stmt 0 view .LVU181
 672 0020 CE68     		ldr	r6, [r1, #12]
 673              	.LVL55:
 381:Middlewares/Third_Party/LwIP/src/core/timeouts.c ****     current_timeout_due_time = tmptimeout->time;
 674              		.loc 1 381 5 is_stmt 1 view .LVU182
ARM GAS  /tmp/ccguVT0k.s 			page 21


 675              		.loc 1 381 30 is_stmt 0 view .LVU183
 676 0022 094A     		ldr	r2, .L65+4
 677 0024 1360     		str	r3, [r2]
 382:Middlewares/Third_Party/LwIP/src/core/timeouts.c **** #if LWIP_DEBUG_TIMERNAMES
 383:Middlewares/Third_Party/LwIP/src/core/timeouts.c ****     if (handler != NULL) {
 384:Middlewares/Third_Party/LwIP/src/core/timeouts.c ****       LWIP_DEBUGF(TIMERS_DEBUG, ("sct calling h=%s t=%"U32_F" arg=%p\n",
 385:Middlewares/Third_Party/LwIP/src/core/timeouts.c ****                                  tmptimeout->handler_name, sys_now() - tmptimeout->time, arg));
 386:Middlewares/Third_Party/LwIP/src/core/timeouts.c ****     }
 387:Middlewares/Third_Party/LwIP/src/core/timeouts.c **** #endif /* LWIP_DEBUG_TIMERNAMES */
 388:Middlewares/Third_Party/LwIP/src/core/timeouts.c ****     memp_free(MEMP_SYS_TIMEOUT, tmptimeout);
 678              		.loc 1 388 5 is_stmt 1 view .LVU184
 679 0026 0620     		movs	r0, #6
 680 0028 FFF7FEFF 		bl	memp_free
 681              	.LVL56:
 389:Middlewares/Third_Party/LwIP/src/core/timeouts.c ****     if (handler != NULL) {
 682              		.loc 1 389 5 view .LVU185
 683              		.loc 1 389 8 is_stmt 0 view .LVU186
 684 002c 34B9     		cbnz	r4, .L64
 685              	.LVL57:
 686              	.L61:
 687              		.loc 1 389 8 view .LVU187
 688              	.LBE2:
 361:Middlewares/Third_Party/LwIP/src/core/timeouts.c ****     struct sys_timeo *tmptimeout;
 689              		.loc 1 361 3 is_stmt 1 view .LVU188
 690              	.LBB3:
 362:Middlewares/Third_Party/LwIP/src/core/timeouts.c ****     sys_timeout_handler handler;
 691              		.loc 1 362 5 view .LVU189
 363:Middlewares/Third_Party/LwIP/src/core/timeouts.c ****     void *arg;
 692              		.loc 1 363 5 view .LVU190
 364:Middlewares/Third_Party/LwIP/src/core/timeouts.c **** 
 693              		.loc 1 364 5 view .LVU191
 366:Middlewares/Third_Party/LwIP/src/core/timeouts.c **** 
 694              		.loc 1 366 5 view .LVU192
 366:Middlewares/Third_Party/LwIP/src/core/timeouts.c **** 
 695              		.loc 1 366 5 view .LVU193
 696 002e 074B     		ldr	r3, .L65+8
 697 0030 1B78     		ldrb	r3, [r3]	@ zero_extendqisi2
 698 0032 002B     		cmp	r3, #0
 699 0034 E9D0     		beq	.L59
 366:Middlewares/Third_Party/LwIP/src/core/timeouts.c **** 
 700              		.loc 1 366 5 discriminator 1 view .LVU194
 701 0036 FFF7FEFF 		bl	pbuf_free_ooseq
 702              	.LVL58:
 703 003a E6E7     		b	.L59
 704              	.LVL59:
 705              	.L64:
 390:Middlewares/Third_Party/LwIP/src/core/timeouts.c ****       handler(arg);
 706              		.loc 1 390 7 view .LVU195
 707 003c 3046     		mov	r0, r6
 708 003e A047     		blx	r4
 709              	.LVL60:
 710 0040 F5E7     		b	.L61
 711              	.LVL61:
 712              	.L58:
 713              		.loc 1 390 7 is_stmt 0 view .LVU196
 714              	.LBE3:
 391:Middlewares/Third_Party/LwIP/src/core/timeouts.c ****     }
ARM GAS  /tmp/ccguVT0k.s 			page 22


 392:Middlewares/Third_Party/LwIP/src/core/timeouts.c ****     LWIP_TCPIP_THREAD_ALIVE();
 393:Middlewares/Third_Party/LwIP/src/core/timeouts.c **** 
 394:Middlewares/Third_Party/LwIP/src/core/timeouts.c ****     /* Repeat until all expired timers have been called */
 395:Middlewares/Third_Party/LwIP/src/core/timeouts.c ****   } while (1);
 396:Middlewares/Third_Party/LwIP/src/core/timeouts.c **** }
 715              		.loc 1 396 1 view .LVU197
 716 0042 70BD     		pop	{r4, r5, r6, pc}
 717              	.LVL62:
 718              	.L66:
 719              		.loc 1 396 1 view .LVU198
 720              		.align	2
 721              	.L65:
 722 0044 00000000 		.word	.LANCHOR0
 723 0048 00000000 		.word	.LANCHOR1
 724 004c 00000000 		.word	pbuf_free_ooseq_pending
 725              		.cfi_endproc
 726              	.LFE174:
 728              		.section	.text.sys_restart_timeouts,"ax",%progbits
 729              		.align	1
 730              		.global	sys_restart_timeouts
 731              		.syntax unified
 732              		.thumb
 733              		.thumb_func
 735              	sys_restart_timeouts:
 736              	.LFB175:
 397:Middlewares/Third_Party/LwIP/src/core/timeouts.c **** 
 398:Middlewares/Third_Party/LwIP/src/core/timeouts.c **** /** Rebase the timeout times to the current time.
 399:Middlewares/Third_Party/LwIP/src/core/timeouts.c ****  * This is necessary if sys_check_timeouts() hasn't been called for a long
 400:Middlewares/Third_Party/LwIP/src/core/timeouts.c ****  * time (e.g. while saving energy) to prevent all timer functions of that
 401:Middlewares/Third_Party/LwIP/src/core/timeouts.c ****  * period being called.
 402:Middlewares/Third_Party/LwIP/src/core/timeouts.c ****  */
 403:Middlewares/Third_Party/LwIP/src/core/timeouts.c **** void
 404:Middlewares/Third_Party/LwIP/src/core/timeouts.c **** sys_restart_timeouts(void)
 405:Middlewares/Third_Party/LwIP/src/core/timeouts.c **** {
 737              		.loc 1 405 1 is_stmt 1 view -0
 738              		.cfi_startproc
 739              		@ args = 0, pretend = 0, frame = 0
 740              		@ frame_needed = 0, uses_anonymous_args = 0
 741 0000 08B5     		push	{r3, lr}
 742              	.LCFI8:
 743              		.cfi_def_cfa_offset 8
 744              		.cfi_offset 3, -8
 745              		.cfi_offset 14, -4
 406:Middlewares/Third_Party/LwIP/src/core/timeouts.c ****   u32_t now;
 746              		.loc 1 406 3 view .LVU200
 407:Middlewares/Third_Party/LwIP/src/core/timeouts.c ****   u32_t base;
 747              		.loc 1 407 3 view .LVU201
 408:Middlewares/Third_Party/LwIP/src/core/timeouts.c ****   struct sys_timeo *t;
 748              		.loc 1 408 3 view .LVU202
 409:Middlewares/Third_Party/LwIP/src/core/timeouts.c **** 
 410:Middlewares/Third_Party/LwIP/src/core/timeouts.c ****   if (next_timeout == NULL) {
 749              		.loc 1 410 3 view .LVU203
 750              		.loc 1 410 20 is_stmt 0 view .LVU204
 751 0002 084B     		ldr	r3, .L72
 752 0004 1B68     		ldr	r3, [r3]
 753              		.loc 1 410 6 view .LVU205
 754 0006 63B1     		cbz	r3, .L67
ARM GAS  /tmp/ccguVT0k.s 			page 23


 411:Middlewares/Third_Party/LwIP/src/core/timeouts.c ****     return;
 412:Middlewares/Third_Party/LwIP/src/core/timeouts.c ****   }
 413:Middlewares/Third_Party/LwIP/src/core/timeouts.c **** 
 414:Middlewares/Third_Party/LwIP/src/core/timeouts.c ****   now = sys_now();
 755              		.loc 1 414 3 is_stmt 1 view .LVU206
 756              		.loc 1 414 9 is_stmt 0 view .LVU207
 757 0008 FFF7FEFF 		bl	sys_now
 758              	.LVL63:
 415:Middlewares/Third_Party/LwIP/src/core/timeouts.c ****   base = next_timeout->time;
 759              		.loc 1 415 3 is_stmt 1 view .LVU208
 760              		.loc 1 415 22 is_stmt 0 view .LVU209
 761 000c 054B     		ldr	r3, .L72
 762 000e 1A68     		ldr	r2, [r3]
 763              		.loc 1 415 8 view .LVU210
 764 0010 5168     		ldr	r1, [r2, #4]
 765              	.LVL64:
 416:Middlewares/Third_Party/LwIP/src/core/timeouts.c **** 
 417:Middlewares/Third_Party/LwIP/src/core/timeouts.c ****   for (t = next_timeout; t != NULL; t = t->next) {
 766              		.loc 1 417 3 is_stmt 1 view .LVU211
 767              		.loc 1 417 3 is_stmt 0 view .LVU212
 768 0012 04E0     		b	.L69
 769              	.L70:
 418:Middlewares/Third_Party/LwIP/src/core/timeouts.c ****     t->time = (t->time - base) + now;
 770              		.loc 1 418 5 is_stmt 1 discriminator 3 view .LVU213
 771              		.loc 1 418 17 is_stmt 0 discriminator 3 view .LVU214
 772 0014 5368     		ldr	r3, [r2, #4]
 773              		.loc 1 418 24 discriminator 3 view .LVU215
 774 0016 5B1A     		subs	r3, r3, r1
 775              		.loc 1 418 32 discriminator 3 view .LVU216
 776 0018 0344     		add	r3, r3, r0
 777              		.loc 1 418 13 discriminator 3 view .LVU217
 778 001a 5360     		str	r3, [r2, #4]
 417:Middlewares/Third_Party/LwIP/src/core/timeouts.c ****     t->time = (t->time - base) + now;
 779              		.loc 1 417 37 is_stmt 1 discriminator 3 view .LVU218
 417:Middlewares/Third_Party/LwIP/src/core/timeouts.c ****     t->time = (t->time - base) + now;
 780              		.loc 1 417 39 is_stmt 0 discriminator 3 view .LVU219
 781 001c 1268     		ldr	r2, [r2]
 782              	.LVL65:
 783              	.L69:
 417:Middlewares/Third_Party/LwIP/src/core/timeouts.c ****     t->time = (t->time - base) + now;
 784              		.loc 1 417 26 is_stmt 1 discriminator 1 view .LVU220
 417:Middlewares/Third_Party/LwIP/src/core/timeouts.c ****     t->time = (t->time - base) + now;
 785              		.loc 1 417 3 is_stmt 0 discriminator 1 view .LVU221
 786 001e 002A     		cmp	r2, #0
 787 0020 F8D1     		bne	.L70
 788              	.LVL66:
 789              	.L67:
 419:Middlewares/Third_Party/LwIP/src/core/timeouts.c ****   }
 420:Middlewares/Third_Party/LwIP/src/core/timeouts.c **** }
 790              		.loc 1 420 1 view .LVU222
 791 0022 08BD     		pop	{r3, pc}
 792              	.L73:
 793              		.align	2
 794              	.L72:
 795 0024 00000000 		.word	.LANCHOR0
 796              		.cfi_endproc
 797              	.LFE175:
ARM GAS  /tmp/ccguVT0k.s 			page 24


 799              		.section	.rodata.sys_timeouts_sleeptime.str1.4,"aMS",%progbits,1
 800              		.align	2
 801              	.LC4:
 802 0000 696E7661 		.ascii	"invalid sleeptime\000"
 802      6C696420 
 802      736C6565 
 802      7074696D 
 802      6500
 803              		.section	.text.sys_timeouts_sleeptime,"ax",%progbits
 804              		.align	1
 805              		.global	sys_timeouts_sleeptime
 806              		.syntax unified
 807              		.thumb
 808              		.thumb_func
 810              	sys_timeouts_sleeptime:
 811              	.LFB176:
 421:Middlewares/Third_Party/LwIP/src/core/timeouts.c **** 
 422:Middlewares/Third_Party/LwIP/src/core/timeouts.c **** /** Return the time left before the next timeout is due. If no timeouts are
 423:Middlewares/Third_Party/LwIP/src/core/timeouts.c ****  * enqueued, returns 0xffffffff
 424:Middlewares/Third_Party/LwIP/src/core/timeouts.c ****  */
 425:Middlewares/Third_Party/LwIP/src/core/timeouts.c **** u32_t
 426:Middlewares/Third_Party/LwIP/src/core/timeouts.c **** sys_timeouts_sleeptime(void)
 427:Middlewares/Third_Party/LwIP/src/core/timeouts.c **** {
 812              		.loc 1 427 1 is_stmt 1 view -0
 813              		.cfi_startproc
 814              		@ args = 0, pretend = 0, frame = 0
 815              		@ frame_needed = 0, uses_anonymous_args = 0
 816 0000 10B5     		push	{r4, lr}
 817              	.LCFI9:
 818              		.cfi_def_cfa_offset 8
 819              		.cfi_offset 4, -8
 820              		.cfi_offset 14, -4
 428:Middlewares/Third_Party/LwIP/src/core/timeouts.c ****   u32_t now;
 821              		.loc 1 428 3 view .LVU224
 429:Middlewares/Third_Party/LwIP/src/core/timeouts.c **** 
 430:Middlewares/Third_Party/LwIP/src/core/timeouts.c ****   LWIP_ASSERT_CORE_LOCKED();
 822              		.loc 1 430 28 view .LVU225
 431:Middlewares/Third_Party/LwIP/src/core/timeouts.c **** 
 432:Middlewares/Third_Party/LwIP/src/core/timeouts.c ****   if (next_timeout == NULL) {
 823              		.loc 1 432 3 view .LVU226
 824              		.loc 1 432 20 is_stmt 0 view .LVU227
 825 0002 0D4B     		ldr	r3, .L80
 826 0004 1B68     		ldr	r3, [r3]
 827              		.loc 1 432 6 view .LVU228
 828 0006 83B1     		cbz	r3, .L77
 433:Middlewares/Third_Party/LwIP/src/core/timeouts.c ****     return SYS_TIMEOUTS_SLEEPTIME_INFINITE;
 434:Middlewares/Third_Party/LwIP/src/core/timeouts.c ****   }
 435:Middlewares/Third_Party/LwIP/src/core/timeouts.c ****   now = sys_now();
 829              		.loc 1 435 3 is_stmt 1 view .LVU229
 830              		.loc 1 435 9 is_stmt 0 view .LVU230
 831 0008 FFF7FEFF 		bl	sys_now
 832              	.LVL67:
 436:Middlewares/Third_Party/LwIP/src/core/timeouts.c ****   if (TIME_LESS_THAN(next_timeout->time, now)) {
 833              		.loc 1 436 3 is_stmt 1 view .LVU231
 834              		.loc 1 436 7 is_stmt 0 view .LVU232
 835 000c 0A4B     		ldr	r3, .L80
 836 000e 1B68     		ldr	r3, [r3]
ARM GAS  /tmp/ccguVT0k.s 			page 25


 837 0010 5C68     		ldr	r4, [r3, #4]
 838              		.loc 1 436 6 view .LVU233
 839 0012 241A     		subs	r4, r4, r0
 840 0014 0CD4     		bmi	.L78
 841              	.LBB4:
 437:Middlewares/Third_Party/LwIP/src/core/timeouts.c ****     return 0;
 438:Middlewares/Third_Party/LwIP/src/core/timeouts.c ****   } else {
 439:Middlewares/Third_Party/LwIP/src/core/timeouts.c ****     u32_t ret = (u32_t)(next_timeout->time - now);
 842              		.loc 1 439 5 is_stmt 1 view .LVU234
 843              	.LVL68:
 440:Middlewares/Third_Party/LwIP/src/core/timeouts.c ****     LWIP_ASSERT("invalid sleeptime", ret <= LWIP_MAX_TIMEOUT);
 844              		.loc 1 440 5 view .LVU235
 845              		.loc 1 440 5 view .LVU236
 846 0016 002C     		cmp	r4, #0
 847 0018 0BDA     		bge	.L74
 848              		.loc 1 440 5 discriminator 1 view .LVU237
 849              		.loc 1 440 5 discriminator 1 view .LVU238
 850 001a 084B     		ldr	r3, .L80+4
 851 001c 4FF4DC72 		mov	r2, #440
 852 0020 0749     		ldr	r1, .L80+8
 853 0022 0848     		ldr	r0, .L80+12
 854              	.LVL69:
 855              		.loc 1 440 5 is_stmt 0 discriminator 1 view .LVU239
 856 0024 FFF7FEFF 		bl	printf
 857              	.LVL70:
 858              		.loc 1 440 5 is_stmt 1 discriminator 1 view .LVU240
 859              		.loc 1 440 5 discriminator 1 view .LVU241
 441:Middlewares/Third_Party/LwIP/src/core/timeouts.c ****     return ret;
 860              		.loc 1 441 5 discriminator 1 view .LVU242
 861              		.loc 1 441 12 is_stmt 0 discriminator 1 view .LVU243
 862 0028 03E0     		b	.L74
 863              	.LVL71:
 864              	.L77:
 865              		.loc 1 441 12 discriminator 1 view .LVU244
 866              	.LBE4:
 433:Middlewares/Third_Party/LwIP/src/core/timeouts.c ****   }
 867              		.loc 1 433 12 view .LVU245
 868 002a 4FF0FF34 		mov	r4, #-1
 869 002e 00E0     		b	.L74
 870              	.LVL72:
 871              	.L78:
 437:Middlewares/Third_Party/LwIP/src/core/timeouts.c ****   } else {
 872              		.loc 1 437 12 view .LVU246
 873 0030 0024     		movs	r4, #0
 874              	.LVL73:
 875              	.L74:
 442:Middlewares/Third_Party/LwIP/src/core/timeouts.c ****   }
 443:Middlewares/Third_Party/LwIP/src/core/timeouts.c **** }
 876              		.loc 1 443 1 view .LVU247
 877 0032 2046     		mov	r0, r4
 878 0034 10BD     		pop	{r4, pc}
 879              	.L81:
 880 0036 00BF     		.align	2
 881              	.L80:
 882 0038 00000000 		.word	.LANCHOR0
 883 003c 00000000 		.word	.LC0
 884 0040 00000000 		.word	.LC4
ARM GAS  /tmp/ccguVT0k.s 			page 26


 885 0044 74000000 		.word	.LC2
 886              		.cfi_endproc
 887              	.LFE176:
 889              		.global	lwip_num_cyclic_timers
 890              		.global	lwip_cyclic_timers
 891              		.section	.bss.current_timeout_due_time,"aw",%nobits
 892              		.align	2
 893              		.set	.LANCHOR1,. + 0
 896              	current_timeout_due_time:
 897 0000 00000000 		.space	4
 898              		.section	.bss.next_timeout,"aw",%nobits
 899              		.align	2
 900              		.set	.LANCHOR0,. + 0
 903              	next_timeout:
 904 0000 00000000 		.space	4
 905              		.section	.bss.tcpip_tcp_timer_active,"aw",%nobits
 906              		.align	2
 907              		.set	.LANCHOR2,. + 0
 910              	tcpip_tcp_timer_active:
 911 0000 00000000 		.space	4
 912              		.section	.rodata.lwip_cyclic_timers,"a"
 913              		.align	2
 914              		.set	.LANCHOR3,. + 0
 917              	lwip_cyclic_timers:
 918 0000 FA000000 		.word	250
 919 0004 00000000 		.word	tcp_tmr
 920 0008 E8030000 		.word	1000
 921 000c 00000000 		.word	ip_reass_tmr
 922 0010 E8030000 		.word	1000
 923 0014 00000000 		.word	etharp_tmr
 924              		.section	.rodata.lwip_num_cyclic_timers,"a"
 925              		.align	2
 928              	lwip_num_cyclic_timers:
 929 0000 03000000 		.word	3
 930              		.text
 931              	.Letext0:
 932              		.file 2 "/usr/share/gcc-arm-none-eabi-10.3-2021.10/arm-none-eabi/include/machine/_default_types.h"
 933              		.file 3 "/usr/share/gcc-arm-none-eabi-10.3-2021.10/arm-none-eabi/include/sys/_stdint.h"
 934              		.file 4 "/usr/share/gcc-arm-none-eabi-10.3-2021.10/lib/gcc/arm-none-eabi/10.3.1/include/stddef.h"
 935              		.file 5 "Middlewares/Third_Party/LwIP/src/include/lwip/arch.h"
 936              		.file 6 "Middlewares/Third_Party/LwIP/src/include/lwip/err.h"
 937              		.file 7 "Middlewares/Third_Party/LwIP/src/include/lwip/timeouts.h"
 938              		.file 8 "Middlewares/Third_Party/LwIP/src/include/lwip/tcpbase.h"
 939              		.file 9 "Middlewares/Third_Party/LwIP/src/include/lwip/pbuf.h"
 940              		.file 10 "Middlewares/Third_Party/LwIP/src/include/lwip/ip4_addr.h"
 941              		.file 11 "Middlewares/Third_Party/LwIP/src/include/lwip/ip_addr.h"
 942              		.file 12 "Middlewares/Third_Party/LwIP/src/include/lwip/tcp.h"
 943              		.file 13 "Middlewares/Third_Party/LwIP/src/include/lwip/priv/tcp_priv.h"
 944              		.file 14 "Middlewares/Third_Party/LwIP/src/include/lwip/prot/tcp.h"
 945              		.file 15 "/usr/share/gcc-arm-none-eabi-10.3-2021.10/arm-none-eabi/include/stdio.h"
 946              		.file 16 "Middlewares/Third_Party/LwIP/src/include/lwip/sys.h"
 947              		.file 17 "Middlewares/Third_Party/LwIP/src/include/lwip/memp.h"
ARM GAS  /tmp/ccguVT0k.s 			page 27

